     1 00000000                                 [FORMAT "WCOFF"]
     2 00000000                                 [INSTRSET "i486p"]
     3 00000000                                 [OPTIMIZE 1]
     4 00000000                                 [OPTION 1]
     5 00000000                                 [BITS 32]
     6 00000000                                 	EXTERN	_init_gdtidt
     7 00000000                                 	EXTERN	_init_pic
     8 00000000                                 	EXTERN	_io_sti
     9 00000000                                 	EXTERN	_fifo32_init
    10 00000000                                 	EXTERN	_init_pit
    11 00000000                                 	EXTERN	_init_keyboard
    12 00000000                                 	EXTERN	_enable_mouse
    13 00000000                                 	EXTERN	_io_out8
    14 00000000                                 	EXTERN	_memtest
    15 00000000                                 	EXTERN	_memman_init
    16 00000000                                 	EXTERN	_memman_free
    17 00000000                                 	EXTERN	_init_palette
    18 00000000                                 	EXTERN	_shtctl_init
    19 00000000                                 	EXTERN	_task_init
    20 00000000                                 	EXTERN	_task_run
    21 00000000                                 	EXTERN	_sheet_alloc
    22 00000000                                 	EXTERN	_memman_alloc_4k
    23 00000000                                 	EXTERN	_sheet_setbuf
    24 00000000                                 	EXTERN	_init_screen8
    25 00000000                                 	EXTERN	_timer_alloc
    26 00000000                                 	EXTERN	_timer_init
    27 00000000                                 	EXTERN	_timer_settime
    28 00000000                                 	EXTERN	_init_mouse_cursor8
    29 00000000                                 	EXTERN	_task_alloc
    30 00000000                                 	EXTERN	_sheet_slide
    31 00000000                                 	EXTERN	_sheet_updown
    32 00000000                                 	EXTERN	_sprintf
    33 00000000                                 	EXTERN	_memman_total
    34 00000000                                 	EXTERN	_io_cli
    35 00000000                                 	EXTERN	_fifo32_status
    36 00000000                                 	EXTERN	_fifo32_get
    37 00000000                                 	EXTERN	_boxfill8
    38 00000000                                 	EXTERN	_sheet_refresh
    39 00000000                                 	EXTERN	_mouse_decode
    40 00000000                                 	EXTERN	_keytable.0
    41 00000000                                 	EXTERN	_task_sleep
    42 00000000                                 	EXTERN	_putfonts8_asc
    43 00000000                                 	EXTERN	_task_now
    44 00000000                                 [FILE "bootpack.c"]
    45                                          [SECTION .data]
    46 00000000                                 _keytable.0:
    47 00000000 00                              	DB	0
    48 00000001 00                              	DB	0
    49 00000002 31                              	DB	49
    50 00000003 32                              	DB	50
    51 00000004 33                              	DB	51
    52 00000005 34                              	DB	52
    53 00000006 35                              	DB	53
    54 00000007 36                              	DB	54
    55 00000008 37                              	DB	55
    56 00000009 38                              	DB	56
    57 0000000A 39                              	DB	57
    58 0000000B 30                              	DB	48
    59 0000000C 2D                              	DB	45
    60 0000000D 3D                              	DB	61
    61 0000000E 00                              	DB	0
    62 0000000F 00                              	DB	0
    63 00000010 51                              	DB	81
    64 00000011 57                              	DB	87
    65 00000012 45                              	DB	69
    66 00000013 52                              	DB	82
    67 00000014 54                              	DB	84
    68 00000015 59                              	DB	89
    69 00000016 55                              	DB	85
    70 00000017 49                              	DB	73
    71 00000018 4F                              	DB	79
    72 00000019 50                              	DB	80
    73 0000001A 5B                              	DB	91
    74 0000001B 5D                              	DB	93
    75 0000001C 00                              	DB	0
    76 0000001D 00                              	DB	0
    77 0000001E 41                              	DB	65
    78 0000001F 53                              	DB	83
    79 00000020 44                              	DB	68
    80 00000021 46                              	DB	70
    81 00000022 47                              	DB	71
    82 00000023 48                              	DB	72
    83 00000024 4A                              	DB	74
    84 00000025 4B                              	DB	75
    85 00000026 4C                              	DB	76
    86 00000027 3B                              	DB	59
    87 00000028 27                              	DB	39
    88 00000029 60                              	DB	96
    89 0000002A 00                              	DB	0
    90 0000002B 5C                              	DB	92
    91 0000002C 5A                              	DB	90
    92 0000002D 58                              	DB	88
    93 0000002E 43                              	DB	67
    94 0000002F 56                              	DB	86
    95 00000030 42                              	DB	66
    96 00000031 4E                              	DB	78
    97 00000032 4D                              	DB	77
    98 00000033 2C                              	DB	44
    99 00000034 2E                              	DB	46
   100 00000035 2F                              	DB	47
   101 00000036 00                              	DB	0
   102 00000037 2A                              	DB	42
   103 00000038 00                              	DB	0
   104 00000039 20                              	DB	32
   105 0000003A 00                              	DB	0
   106 0000003B 00                              	DB	0
   107 0000003C 00                              	DB	0
   108 0000003D 00                              	DB	0
   109 0000003E 00                              	DB	0
   110 0000003F 00                              	DB	0
   111 00000040 00                              	DB	0
   112 00000041 00                              	DB	0
   113 00000042 00                              	DB	0
   114 00000043 00                              	DB	0
   115 00000044 00                              	DB	0
   116 00000045 00                              	DB	0
   117 00000046 00                              	DB	0
   118 00000047 37                              	DB	55
   119 00000048 38                              	DB	56
   120 00000049 39                              	DB	57
   121 0000004A 2D                              	DB	45
   122 0000004B 34                              	DB	52
   123 0000004C 35                              	DB	53
   124 0000004D 36                              	DB	54
   125 0000004E 2B                              	DB	43
   126 0000004F 31                              	DB	49
   127 00000050 32                              	DB	50
   128 00000051 33                              	DB	51
   129 00000052 30                              	DB	48
   130 00000053 2E                              	DB	46
   131 00000054                                 LC0:
   132 00000054 74 61 73 6B 5F 61 00            	DB	"task_a",0x00
   133 0000005B                                 LC1:
   134 0000005B 63 6F 6E 73 6F 6C 65 00         	DB	"console",0x00
   135 00000063                                 LC2:
   136 00000063 28 25 33 64 2C 20 25 33 64 29   	DB	"(%3d, %3d)",0x00
       0000006D 00 
   137 0000006E                                 LC3:
   138 0000006E 6D 65 6D 6F 72 79 20 25 64 4D   	DB	"memory %dMB   free : %dKB",0x00
       00000078 42 20 20 20 66 72 65 65 20 3A 
       00000082 20 25 64 4B 42 00 
   139 00000088                                 LC6:
   140 00000088 5B 6C 63 72 20 25 34 64 20 25   	DB	"[lcr %4d %4d]",0x00
       00000092 34 64 5D 00 
   141 00000096                                 LC4:
   142 00000096 25 30 32 58 00                  	DB	"%02X",0x00
   143 0000009B                                 LC5:
   144 0000009B 20 00                           	DB	" ",0x00
   145                                          [SECTION .text]
   146 00000000                                 	GLOBAL	_HariMain
   147 00000000                                 _HariMain:
   148 00000000 55                              	PUSH	EBP
   149 00000001 89 E5                           	MOV	EBP,ESP
   150 00000003 57                              	PUSH	EDI
   151 00000004 56                              	PUSH	ESI
   152 00000005 53                              	PUSH	EBX
   153 00000006 8D 7D D4                        	LEA	EDI,DWORD [-44+EBP]
   154 00000009 81 EC 0000039C                  	SUB	ESP,924
   155 0000000F E8 [00000000]                   	CALL	_init_gdtidt
   156 00000014 E8 [00000000]                   	CALL	_init_pic
   157 00000019 E8 [00000000]                   	CALL	_io_sti
   158 0000001E 8D 85 FFFFFDA4                  	LEA	EAX,DWORD [-604+EBP]
   159 00000024 6A 00                           	PUSH	0
   160 00000026 50                              	PUSH	EAX
   161 00000027 68 00000080                     	PUSH	128
   162 0000002C 57                              	PUSH	EDI
   163 0000002D E8 [00000000]                   	CALL	_fifo32_init
   164 00000032 E8 [00000000]                   	CALL	_init_pit
   165 00000037 68 00000100                     	PUSH	256
   166 0000003C 57                              	PUSH	EDI
   167 0000003D E8 [00000000]                   	CALL	_init_keyboard
   168 00000042 8D 85 FFFFFD94                  	LEA	EAX,DWORD [-620+EBP]
   169 00000048 50                              	PUSH	EAX
   170 00000049 68 00000200                     	PUSH	512
   171 0000004E 57                              	PUSH	EDI
   172 0000004F E8 [00000000]                   	CALL	_enable_mouse
   173 00000054 83 C4 24                        	ADD	ESP,36
   174 00000057 68 000000F8                     	PUSH	248
   175 0000005C 6A 21                           	PUSH	33
   176 0000005E E8 [00000000]                   	CALL	_io_out8
   177 00000063 68 000000EF                     	PUSH	239
   178 00000068 68 000000A1                     	PUSH	161
   179 0000006D E8 [00000000]                   	CALL	_io_out8
   180 00000072 68 BFFFFFFF                     	PUSH	-1073741825
   181 00000077 68 00400000                     	PUSH	4194304
   182 0000007C E8 [00000000]                   	CALL	_memtest
   183 00000081 68 003C0000                     	PUSH	3932160
   184 00000086 89 85 FFFFFC74                  	MOV	DWORD [-908+EBP],EAX
   185 0000008C E8 [00000000]                   	CALL	_memman_init
   186 00000091 68 0009E000                     	PUSH	647168
   187 00000096 68 00001000                     	PUSH	4096
   188 0000009B 68 003C0000                     	PUSH	3932160
   189 000000A0 E8 [00000000]                   	CALL	_memman_free
   190 000000A5 8B 85 FFFFFC74                  	MOV	EAX,DWORD [-908+EBP]
   191 000000AB 83 C4 28                        	ADD	ESP,40
   192 000000AE 2D 00400000                     	SUB	EAX,4194304
   193 000000B3 50                              	PUSH	EAX
   194 000000B4 68 00400000                     	PUSH	4194304
   195 000000B9 68 003C0000                     	PUSH	3932160
   196 000000BE E8 [00000000]                   	CALL	_memman_free
   197 000000C3 E8 [00000000]                   	CALL	_init_palette
   198 000000C8 0F BF 05 00000FF6               	MOVSX	EAX,WORD [4086]
   199 000000CF 50                              	PUSH	EAX
   200 000000D0 0F BF 05 00000FF4               	MOVSX	EAX,WORD [4084]
   201 000000D7 50                              	PUSH	EAX
   202 000000D8 FF 35 00000FF8                  	PUSH	DWORD [4088]
   203 000000DE 68 003C0000                     	PUSH	3932160
   204 000000E3 E8 [00000000]                   	CALL	_shtctl_init
   205 000000E8 68 003C0000                     	PUSH	3932160
   206 000000ED 89 C6                           	MOV	ESI,EAX
   207 000000EF E8 [00000000]                   	CALL	_task_init
   208 000000F4 83 C4 20                        	ADD	ESP,32
   209 000000F7 89 85 FFFFFC60                  	MOV	DWORD [-928+EBP],EAX
   210 000000FD 89 45 EC                        	MOV	DWORD [-20+EBP],EAX
   211 00000100 6A 00                           	PUSH	0
   212 00000102 6A 01                           	PUSH	1
   213 00000104 50                              	PUSH	EAX
   214 00000105 E8 [00000000]                   	CALL	_task_run
   215 0000010A 56                              	PUSH	ESI
   216 0000010B E8 [00000000]                   	CALL	_sheet_alloc
   217 00000110 0F BF 15 00000FF6               	MOVSX	EDX,WORD [4086]
   218 00000117 89 85 FFFFFC70                  	MOV	DWORD [-912+EBP],EAX
   219 0000011D 0F BF 05 00000FF4               	MOVSX	EAX,WORD [4084]
   220 00000124 0F AF C2                        	IMUL	EAX,EDX
   221 00000127 50                              	PUSH	EAX
   222 00000128 68 003C0000                     	PUSH	3932160
   223 0000012D E8 [00000000]                   	CALL	_memman_alloc_4k
   224 00000132 6A FF                           	PUSH	-1
   225 00000134 89 C3                           	MOV	EBX,EAX
   226 00000136 0F BF 05 00000FF6               	MOVSX	EAX,WORD [4086]
   227 0000013D 50                              	PUSH	EAX
   228 0000013E 0F BF 05 00000FF4               	MOVSX	EAX,WORD [4084]
   229 00000145 50                              	PUSH	EAX
   230 00000146 53                              	PUSH	EBX
   231 00000147 FF B5 FFFFFC70                  	PUSH	DWORD [-912+EBP]
   232 0000014D E8 [00000000]                   	CALL	_sheet_setbuf
   233 00000152 83 C4 2C                        	ADD	ESP,44
   234 00000155 0F BF 05 00000FF6               	MOVSX	EAX,WORD [4086]
   235 0000015C 50                              	PUSH	EAX
   236 0000015D 0F BF 05 00000FF4               	MOVSX	EAX,WORD [4084]
   237 00000164 50                              	PUSH	EAX
   238 00000165 53                              	PUSH	EBX
   239 00000166 E8 [00000000]                   	CALL	_init_screen8
   240 0000016B 56                              	PUSH	ESI
   241 0000016C E8 [00000000]                   	CALL	_sheet_alloc
   242 00000171 68 00002080                     	PUSH	8320
   243 00000176 68 003C0000                     	PUSH	3932160
   244 0000017B 89 85 FFFFFC68                  	MOV	DWORD [-920+EBP],EAX
   245 00000181 E8 [00000000]                   	CALL	_memman_alloc_4k
   246 00000186 6A FF                           	PUSH	-1
   247 00000188 89 C3                           	MOV	EBX,EAX
   248 0000018A 6A 34                           	PUSH	52
   249 0000018C 68 00000090                     	PUSH	144
   250 00000191 50                              	PUSH	EAX
   251 00000192 FF B5 FFFFFC68                  	PUSH	DWORD [-920+EBP]
   252 00000198 E8 [00000000]                   	CALL	_sheet_setbuf
   253 0000019D 83 C4 2C                        	ADD	ESP,44
   254 000001A0 6A 01                           	PUSH	1
   255 000001A2 68 [00000054]                   	PUSH	LC0
   256 000001A7 6A 34                           	PUSH	52
   257 000001A9 68 00000090                     	PUSH	144
   258 000001AE 53                              	PUSH	EBX
   259 000001AF 8D 9D FFFFFC84                  	LEA	EBX,DWORD [-892+EBP]
   260 000001B5 E8 00000575                     	CALL	_make_window8
   261 000001BA 6A 07                           	PUSH	7
   262 000001BC 6A 10                           	PUSH	16
   263 000001BE 68 00000080                     	PUSH	128
   264 000001C3 6A 1C                           	PUSH	28
   265 000001C5 6A 08                           	PUSH	8
   266 000001C7 FF B5 FFFFFC68                  	PUSH	DWORD [-920+EBP]
   267 000001CD E8 00000784                     	CALL	_make_textbox8
   268 000001D2 83 C4 2C                        	ADD	ESP,44
   269 000001D5 C7 85 FFFFFC7C 00000008         	MOV	DWORD [-900+EBP],8
   270 000001DF C7 85 FFFFFC78 00000007         	MOV	DWORD [-904+EBP],7
   271 000001E9 E8 [00000000]                   	CALL	_timer_alloc
   272 000001EE 6A 01                           	PUSH	1
   273 000001F0 57                              	PUSH	EDI
   274 000001F1 50                              	PUSH	EAX
   275 000001F2 89 85 FFFFFC64                  	MOV	DWORD [-924+EBP],EAX
   276 000001F8 E8 [00000000]                   	CALL	_timer_init
   277 000001FD 6A 32                           	PUSH	50
   278 000001FF FF B5 FFFFFC64                  	PUSH	DWORD [-924+EBP]
   279 00000205 E8 [00000000]                   	CALL	_timer_settime
   280 0000020A 56                              	PUSH	ESI
   281 0000020B E8 [00000000]                   	CALL	_sheet_alloc
   282 00000210 6A 63                           	PUSH	99
   283 00000212 6A 10                           	PUSH	16
   284 00000214 6A 10                           	PUSH	16
   285 00000216 89 85 FFFFFC6C                  	MOV	DWORD [-916+EBP],EAX
   286 0000021C 53                              	PUSH	EBX
   287 0000021D 50                              	PUSH	EAX
   288 0000021E E8 [00000000]                   	CALL	_sheet_setbuf
   289 00000223 83 C4 2C                        	ADD	ESP,44
   290 00000226 6A 63                           	PUSH	99
   291 00000228 53                              	PUSH	EBX
   292 00000229 BB 00000002                     	MOV	EBX,2
   293 0000022E E8 [00000000]                   	CALL	_init_mouse_cursor8
   294 00000233 0F BF 05 00000FF4               	MOVSX	EAX,WORD [4084]
   295 0000023A 8D 48 F0                        	LEA	ECX,DWORD [-16+EAX]
   296 0000023D 89 C8                           	MOV	EAX,ECX
   297 0000023F 99                              	CDQ
   298 00000240 F7 FB                           	IDIV	EBX
   299 00000242 89 85 FFFFFC80                  	MOV	DWORD [-896+EBP],EAX
   300 00000248 0F BF 05 00000FF6               	MOVSX	EAX,WORD [4086]
   301 0000024F 56                              	PUSH	ESI
   302 00000250 8D 48 D4                        	LEA	ECX,DWORD [-44+EAX]
   303 00000253 89 C8                           	MOV	EAX,ECX
   304 00000255 99                              	CDQ
   305 00000256 F7 FB                           	IDIV	EBX
   306 00000258 89 C7                           	MOV	EDI,EAX
   307 0000025A E8 [00000000]                   	CALL	_sheet_alloc
   308 0000025F 68 0000A500                     	PUSH	42240
   309 00000264 89 C6                           	MOV	ESI,EAX
   310 00000266 68 003C0000                     	PUSH	3932160
   311 0000026B E8 [00000000]                   	CALL	_memman_alloc_4k
   312 00000270 6A FF                           	PUSH	-1
   313 00000272 68 000000A5                     	PUSH	165
   314 00000277 89 C3                           	MOV	EBX,EAX
   315 00000279 68 00000100                     	PUSH	256
   316 0000027E 50                              	PUSH	EAX
   317 0000027F 56                              	PUSH	ESI
   318 00000280 E8 [00000000]                   	CALL	_sheet_setbuf
   319 00000285 83 C4 28                        	ADD	ESP,40
   320 00000288 6A 00                           	PUSH	0
   321 0000028A 68 [0000005B]                   	PUSH	LC1
   322 0000028F 68 000000A5                     	PUSH	165
   323 00000294 68 00000100                     	PUSH	256
   324 00000299 53                              	PUSH	EBX
   325 0000029A E8 00000490                     	CALL	_make_window8
   326 0000029F 6A 00                           	PUSH	0
   327 000002A1 68 00000080                     	PUSH	128
   328 000002A6 68 000000F0                     	PUSH	240
   329 000002AB 6A 1C                           	PUSH	28
   330 000002AD 6A 08                           	PUSH	8
   331 000002AF 56                              	PUSH	ESI
   332 000002B0 E8 000006A1                     	CALL	_make_textbox8
   333 000002B5 83 C4 2C                        	ADD	ESP,44
   334 000002B8 E8 [00000000]                   	CALL	_task_alloc
   335 000002BD 68 00010000                     	PUSH	65536
   336 000002C2 89 C3                           	MOV	EBX,EAX
   337 000002C4 68 003C0000                     	PUSH	3932160
   338 000002C9 E8 [00000000]                   	CALL	_memman_alloc_4k
   339 000002CE 05 0000FFF8                     	ADD	EAX,65528
   340 000002D3 89 43 48                        	MOV	DWORD [72+EBX],EAX
   341 000002D6 C7 43 30 [00000B46]             	MOV	DWORD [48+EBX],_console_task
   342 000002DD C7 43 58 00000008               	MOV	DWORD [88+EBX],8
   343 000002E4 C7 43 5C 00000010               	MOV	DWORD [92+EBX],16
   344 000002EB C7 43 60 00000008               	MOV	DWORD [96+EBX],8
   345 000002F2 C7 43 64 00000008               	MOV	DWORD [100+EBX],8
   346 000002F9 C7 43 68 00000008               	MOV	DWORD [104+EBX],8
   347 00000300 C7 43 6C 00000008               	MOV	DWORD [108+EBX],8
   348 00000307 89 70 04                        	MOV	DWORD [4+EAX],ESI
   349 0000030A 6A 02                           	PUSH	2
   350 0000030C 6A 02                           	PUSH	2
   351 0000030E 53                              	PUSH	EBX
   352 0000030F 8D 5D A4                        	LEA	EBX,DWORD [-92+EBP]
   353 00000312 E8 [00000000]                   	CALL	_task_run
   354 00000317 6A 00                           	PUSH	0
   355 00000319 6A 00                           	PUSH	0
   356 0000031B FF B5 FFFFFC70                  	PUSH	DWORD [-912+EBP]
   357 00000321 E8 [00000000]                   	CALL	_sheet_slide
   358 00000326 83 C4 20                        	ADD	ESP,32
   359 00000329 6A 04                           	PUSH	4
   360 0000032B 6A 20                           	PUSH	32
   361 0000032D 56                              	PUSH	ESI
   362 0000032E E8 [00000000]                   	CALL	_sheet_slide
   363 00000333 6A 38                           	PUSH	56
   364 00000335 6A 40                           	PUSH	64
   365 00000337 FF B5 FFFFFC68                  	PUSH	DWORD [-920+EBP]
   366 0000033D E8 [00000000]                   	CALL	_sheet_slide
   367 00000342 57                              	PUSH	EDI
   368 00000343 FF B5 FFFFFC80                  	PUSH	DWORD [-896+EBP]
   369 00000349 FF B5 FFFFFC6C                  	PUSH	DWORD [-916+EBP]
   370 0000034F E8 [00000000]                   	CALL	_sheet_slide
   371 00000354 83 C4 24                        	ADD	ESP,36
   372 00000357 6A 00                           	PUSH	0
   373 00000359 FF B5 FFFFFC70                  	PUSH	DWORD [-912+EBP]
   374 0000035F E8 [00000000]                   	CALL	_sheet_updown
   375 00000364 6A 01                           	PUSH	1
   376 00000366 56                              	PUSH	ESI
   377 00000367 E8 [00000000]                   	CALL	_sheet_updown
   378 0000036C 6A 02                           	PUSH	2
   379 0000036E FF B5 FFFFFC68                  	PUSH	DWORD [-920+EBP]
   380 00000374 E8 [00000000]                   	CALL	_sheet_updown
   381 00000379 6A 03                           	PUSH	3
   382 0000037B FF B5 FFFFFC6C                  	PUSH	DWORD [-916+EBP]
   383 00000381 E8 [00000000]                   	CALL	_sheet_updown
   384 00000386 83 C4 20                        	ADD	ESP,32
   385 00000389 57                              	PUSH	EDI
   386 0000038A FF B5 FFFFFC80                  	PUSH	DWORD [-896+EBP]
   387 00000390 68 [00000063]                   	PUSH	LC2
   388 00000395 53                              	PUSH	EBX
   389 00000396 E8 [00000000]                   	CALL	_sprintf
   390 0000039B 6A 0A                           	PUSH	10
   391 0000039D 53                              	PUSH	EBX
   392 0000039E 6A 0E                           	PUSH	14
   393 000003A0 6A 07                           	PUSH	7
   394 000003A2 6A 00                           	PUSH	0
   395 000003A4 6A 00                           	PUSH	0
   396 000003A6 FF B5 FFFFFC70                  	PUSH	DWORD [-912+EBP]
   397 000003AC E8 0000051E                     	CALL	_putfonts8_asc_sht
   398 000003B1 83 C4 2C                        	ADD	ESP,44
   399 000003B4 68 003C0000                     	PUSH	3932160
   400 000003B9 E8 [00000000]                   	CALL	_memman_total
   401 000003BE C1 AD FFFFFC74 14               	SHR	DWORD [-908+EBP],20
   402 000003C5 C1 E8 0A                        	SHR	EAX,10
   403 000003C8 89 04 24                        	MOV	DWORD [ESP],EAX
   404 000003CB FF B5 FFFFFC74                  	PUSH	DWORD [-908+EBP]
   405 000003D1 68 [0000006E]                   	PUSH	LC3
   406 000003D6 53                              	PUSH	EBX
   407 000003D7 E8 [00000000]                   	CALL	_sprintf
   408 000003DC 6A 28                           	PUSH	40
   409 000003DE 53                              	PUSH	EBX
   410 000003DF 6A 0E                           	PUSH	14
   411 000003E1 6A 07                           	PUSH	7
   412 000003E3 6A 20                           	PUSH	32
   413 000003E5 6A 00                           	PUSH	0
   414 000003E7 FF B5 FFFFFC70                  	PUSH	DWORD [-912+EBP]
   415 000003ED E8 000004DD                     	CALL	_putfonts8_asc_sht
   416 000003F2 83 C4 2C                        	ADD	ESP,44
   417 000003F5                                 L2:
   418 000003F5 8D 75 D4                        	LEA	ESI,DWORD [-44+EBP]
   419 000003F8 E8 [00000000]                   	CALL	_io_cli
   420 000003FD 56                              	PUSH	ESI
   421 000003FE E8 [00000000]                   	CALL	_fifo32_status
   422 00000403 5B                              	POP	EBX
   423 00000404 85 C0                           	TEST	EAX,EAX
   424 00000406 0F 84 0000030D                  	JE	L27
   425 0000040C 56                              	PUSH	ESI
   426 0000040D E8 [00000000]                   	CALL	_fifo32_get
   427 00000412 89 C3                           	MOV	EBX,EAX
   428 00000414 E8 [00000000]                   	CALL	_io_sti
   429 00000419 5A                              	POP	EDX
   430 0000041A 8D 83 FFFFFF00                  	LEA	EAX,DWORD [-256+EBX]
   431 00000420 3D 000000FF                     	CMP	EAX,255
   432 00000425 0F 86 000001F3                  	JBE	L28
   433 0000042B 8D 83 FFFFFE00                  	LEA	EAX,DWORD [-512+EBX]
   434 00000431 3D 000000FF                     	CMP	EAX,255
   435 00000436 0F 86 000000A2                  	JBE	L29
   436 0000043C 83 FB 01                        	CMP	EBX,1
   437 0000043F 7F B4                           	JG	L2
   438 00000441 85 DB                           	TEST	EBX,EBX
   439 00000443 74 7C                           	JE	L24
   440 00000445 6A 00                           	PUSH	0
   441 00000447 56                              	PUSH	ESI
   442 00000448 FF B5 FFFFFC64                  	PUSH	DWORD [-924+EBP]
   443 0000044E E8 [00000000]                   	CALL	_timer_init
   444 00000453 C7 85 FFFFFC78 00000000         	MOV	DWORD [-904+EBP],0
   445 0000045D                                 L26:
   446 0000045D 83 C4 0C                        	ADD	ESP,12
   447 00000460 6A 32                           	PUSH	50
   448 00000462 FF B5 FFFFFC64                  	PUSH	DWORD [-924+EBP]
   449 00000468 E8 [00000000]                   	CALL	_timer_settime
   450 0000046D 8B 95 FFFFFC68                  	MOV	EDX,DWORD [-920+EBP]
   451 00000473 8B 85 FFFFFC7C                  	MOV	EAX,DWORD [-900+EBP]
   452 00000479 6A 2B                           	PUSH	43
   453 0000047B 83 C0 07                        	ADD	EAX,7
   454 0000047E 50                              	PUSH	EAX
   455 0000047F 6A 1C                           	PUSH	28
   456 00000481 FF B5 FFFFFC7C                  	PUSH	DWORD [-900+EBP]
   457 00000487 FF B5 FFFFFC78                  	PUSH	DWORD [-904+EBP]
   458 0000048D FF 72 04                        	PUSH	DWORD [4+EDX]
   459 00000490 FF 32                           	PUSH	DWORD [EDX]
   460 00000492 E8 [00000000]                   	CALL	_boxfill8
   461 00000497 8B 85 FFFFFC7C                  	MOV	EAX,DWORD [-900+EBP]
   462 0000049D 83 C4 24                        	ADD	ESP,36
   463 000004A0 83 C0 08                        	ADD	EAX,8
   464 000004A3 6A 2C                           	PUSH	44
   465 000004A5 50                              	PUSH	EAX
   466 000004A6 6A 1C                           	PUSH	28
   467 000004A8 FF B5 FFFFFC7C                  	PUSH	DWORD [-900+EBP]
   468 000004AE FF B5 FFFFFC68                  	PUSH	DWORD [-920+EBP]
   469 000004B4 E8 [00000000]                   	CALL	_sheet_refresh
   470 000004B9 83 C4 14                        	ADD	ESP,20
   471 000004BC E9 FFFFFF34                     	JMP	L2
   472 000004C1                                 L24:
   473 000004C1 6A 01                           	PUSH	1
   474 000004C3 56                              	PUSH	ESI
   475 000004C4 FF B5 FFFFFC64                  	PUSH	DWORD [-924+EBP]
   476 000004CA E8 [00000000]                   	CALL	_timer_init
   477 000004CF C7 85 FFFFFC78 00000007         	MOV	DWORD [-904+EBP],7
   478 000004D9 E9 FFFFFF7F                     	JMP	L26
   479 000004DE                                 L29:
   480 000004DE 0F B6 C3                        	MOVZX	EAX,BL
   481 000004E1 50                              	PUSH	EAX
   482 000004E2 8D 85 FFFFFD94                  	LEA	EAX,DWORD [-620+EBP]
   483 000004E8 50                              	PUSH	EAX
   484 000004E9 E8 [00000000]                   	CALL	_mouse_decode
   485 000004EE 5A                              	POP	EDX
   486 000004EF 59                              	POP	ECX
   487 000004F0 85 C0                           	TEST	EAX,EAX
   488 000004F2 0F 84 FFFFFEFD                  	JE	L2
   489 000004F8 FF B5 FFFFFD9C                  	PUSH	DWORD [-612+EBP]
   490 000004FE FF B5 FFFFFD98                  	PUSH	DWORD [-616+EBP]
   491 00000504 68 [00000088]                   	PUSH	LC6
   492 00000509 8D 5D A4                        	LEA	EBX,DWORD [-92+EBP]
   493 0000050C 53                              	PUSH	EBX
   494 0000050D E8 [00000000]                   	CALL	_sprintf
   495 00000512 83 C4 10                        	ADD	ESP,16
   496 00000515 8B 85 FFFFFDA0                  	MOV	EAX,DWORD [-608+EBP]
   497 0000051B A9 00000001                     	TEST	EAX,1
   498 00000520 74 04                           	JE	L14
   499 00000522 C6 45 A5 4C                     	MOV	BYTE [-91+EBP],76
   500 00000526                                 L14:
   501 00000526 A9 00000002                     	TEST	EAX,2
   502 0000052B 74 04                           	JE	L15
   503 0000052D C6 45 A7 52                     	MOV	BYTE [-89+EBP],82
   504 00000531                                 L15:
   505 00000531 83 E0 04                        	AND	EAX,4
   506 00000534 74 04                           	JE	L16
   507 00000536 C6 45 A6 43                     	MOV	BYTE [-90+EBP],67
   508 0000053A                                 L16:
   509 0000053A 6A 0F                           	PUSH	15
   510 0000053C 53                              	PUSH	EBX
   511 0000053D 6A 0E                           	PUSH	14
   512 0000053F 6A 07                           	PUSH	7
   513 00000541 6A 10                           	PUSH	16
   514 00000543 6A 20                           	PUSH	32
   515 00000545 FF B5 FFFFFC70                  	PUSH	DWORD [-912+EBP]
   516 0000054B E8 0000037F                     	CALL	_putfonts8_asc_sht
   517 00000550 8B 85 FFFFFD98                  	MOV	EAX,DWORD [-616+EBP]
   518 00000556 03 BD FFFFFD9C                  	ADD	EDI,DWORD [-612+EBP]
   519 0000055C 83 C4 1C                        	ADD	ESP,28
   520 0000055F 01 85 FFFFFC80                  	ADD	DWORD [-896+EBP],EAX
   521 00000565 0F 88 000000A4                  	JS	L30
   522 0000056B                                 L17:
   523 0000056B 85 FF                           	TEST	EDI,EDI
   524 0000056D 0F 88 00000095                  	JS	L31
   525 00000573                                 L18:
   526 00000573 0F BF 05 00000FF4               	MOVSX	EAX,WORD [4084]
   527 0000057A 48                              	DEC	EAX
   528 0000057B 39 85 FFFFFC80                  	CMP	DWORD [-896+EBP],EAX
   529 00000581 7E 06                           	JLE	L19
   530 00000583 89 85 FFFFFC80                  	MOV	DWORD [-896+EBP],EAX
   531 00000589                                 L19:
   532 00000589 0F BF 05 00000FF6               	MOVSX	EAX,WORD [4086]
   533 00000590 48                              	DEC	EAX
   534 00000591 39 C7                           	CMP	EDI,EAX
   535 00000593 7E 02                           	JLE	L20
   536 00000595 89 C7                           	MOV	EDI,EAX
   537 00000597                                 L20:
   538 00000597 57                              	PUSH	EDI
   539 00000598 FF B5 FFFFFC80                  	PUSH	DWORD [-896+EBP]
   540 0000059E 68 [00000063]                   	PUSH	LC2
   541 000005A3 53                              	PUSH	EBX
   542 000005A4 E8 [00000000]                   	CALL	_sprintf
   543 000005A9 6A 0A                           	PUSH	10
   544 000005AB 53                              	PUSH	EBX
   545 000005AC 6A 0E                           	PUSH	14
   546 000005AE 6A 07                           	PUSH	7
   547 000005B0 6A 00                           	PUSH	0
   548 000005B2 6A 00                           	PUSH	0
   549 000005B4 FF B5 FFFFFC70                  	PUSH	DWORD [-912+EBP]
   550 000005BA E8 00000310                     	CALL	_putfonts8_asc_sht
   551 000005BF 83 C4 2C                        	ADD	ESP,44
   552 000005C2 57                              	PUSH	EDI
   553 000005C3 FF B5 FFFFFC80                  	PUSH	DWORD [-896+EBP]
   554 000005C9 FF B5 FFFFFC6C                  	PUSH	DWORD [-916+EBP]
   555 000005CF E8 [00000000]                   	CALL	_sheet_slide
   556 000005D4 83 C4 0C                        	ADD	ESP,12
   557 000005D7 F7 85 FFFFFDA0 00000001         	TEST	DWORD [-608+EBP],1
   558 000005E1 0F 84 FFFFFE0E                  	JE	L2
   559 000005E7 8D 47 F8                        	LEA	EAX,DWORD [-8+EDI]
   560 000005EA 50                              	PUSH	EAX
   561 000005EB 8B 85 FFFFFC80                  	MOV	EAX,DWORD [-896+EBP]
   562 000005F1 83 E8 50                        	SUB	EAX,80
   563 000005F4 50                              	PUSH	EAX
   564 000005F5 FF B5 FFFFFC68                  	PUSH	DWORD [-920+EBP]
   565 000005FB E8 [00000000]                   	CALL	_sheet_slide
   566 00000600 83 C4 0C                        	ADD	ESP,12
   567 00000603 E9 FFFFFDED                     	JMP	L2
   568 00000608                                 L31:
   569 00000608 31 FF                           	XOR	EDI,EDI
   570 0000060A E9 FFFFFF64                     	JMP	L18
   571 0000060F                                 L30:
   572 0000060F C7 85 FFFFFC80 00000000         	MOV	DWORD [-896+EBP],0
   573 00000619 E9 FFFFFF4D                     	JMP	L17
   574 0000061E                                 L28:
   575 0000061E 50                              	PUSH	EAX
   576 0000061F 8D 75 A4                        	LEA	ESI,DWORD [-92+EBP]
   577 00000622 68 [00000096]                   	PUSH	LC4
   578 00000627 56                              	PUSH	ESI
   579 00000628 E8 [00000000]                   	CALL	_sprintf
   580 0000062D 6A 02                           	PUSH	2
   581 0000062F 56                              	PUSH	ESI
   582 00000630 6A 0E                           	PUSH	14
   583 00000632 6A 07                           	PUSH	7
   584 00000634 6A 10                           	PUSH	16
   585 00000636 6A 00                           	PUSH	0
   586 00000638 FF B5 FFFFFC70                  	PUSH	DWORD [-912+EBP]
   587 0000063E E8 0000028C                     	CALL	_putfonts8_asc_sht
   588 00000643 83 C4 28                        	ADD	ESP,40
   589 00000646 81 FB 00000153                  	CMP	EBX,339
   590 0000064C 7F 41                           	JG	L8
   591 0000064E 8A 83 [FFFFFF00]                	MOV	AL,BYTE [_keytable.0-256+EBX]
   592 00000654 84 C0                           	TEST	AL,AL
   593 00000656 74 37                           	JE	L8
   594 00000658 81 BD FFFFFC7C 0000008F         	CMP	DWORD [-900+EBP],143
   595 00000662 7F 2B                           	JG	L8
   596 00000664 6A 01                           	PUSH	1
   597 00000666 88 45 A4                        	MOV	BYTE [-92+EBP],AL
   598 00000669 56                              	PUSH	ESI
   599 0000066A 6A 07                           	PUSH	7
   600 0000066C 6A 00                           	PUSH	0
   601 0000066E 6A 1C                           	PUSH	28
   602 00000670 FF B5 FFFFFC7C                  	PUSH	DWORD [-900+EBP]
   603 00000676 FF B5 FFFFFC68                  	PUSH	DWORD [-920+EBP]
   604 0000067C C6 45 A5 00                     	MOV	BYTE [-91+EBP],0
   605 00000680 E8 0000024A                     	CALL	_putfonts8_asc_sht
   606 00000685 83 C4 1C                        	ADD	ESP,28
   607 00000688 83 85 FFFFFC7C 08               	ADD	DWORD [-900+EBP],8
   608 0000068F                                 L8:
   609 0000068F 81 FB 0000010E                  	CMP	EBX,270
   610 00000695 74 4C                           	JE	L32
   611 00000697                                 L10:
   612 00000697 8B 85 FFFFFC7C                  	MOV	EAX,DWORD [-900+EBP]
   613 0000069D 6A 2B                           	PUSH	43
   614 0000069F 83 C0 07                        	ADD	EAX,7
   615 000006A2 8B 9D FFFFFC68                  	MOV	EBX,DWORD [-920+EBP]
   616 000006A8 50                              	PUSH	EAX
   617 000006A9 6A 1C                           	PUSH	28
   618 000006AB FF B5 FFFFFC7C                  	PUSH	DWORD [-900+EBP]
   619 000006B1 FF B5 FFFFFC78                  	PUSH	DWORD [-904+EBP]
   620 000006B7 FF 73 04                        	PUSH	DWORD [4+EBX]
   621 000006BA FF 33                           	PUSH	DWORD [EBX]
   622 000006BC E8 [00000000]                   	CALL	_boxfill8
   623 000006C1 8B 85 FFFFFC7C                  	MOV	EAX,DWORD [-900+EBP]
   624 000006C7 6A 2C                           	PUSH	44
   625 000006C9 83 C0 08                        	ADD	EAX,8
   626 000006CC 50                              	PUSH	EAX
   627 000006CD 6A 1C                           	PUSH	28
   628 000006CF FF B5 FFFFFC7C                  	PUSH	DWORD [-900+EBP]
   629 000006D5 53                              	PUSH	EBX
   630 000006D6 E8 [00000000]                   	CALL	_sheet_refresh
   631 000006DB 83 C4 30                        	ADD	ESP,48
   632 000006DE E9 FFFFFD12                     	JMP	L2
   633 000006E3                                 L32:
   634 000006E3 83 BD FFFFFC7C 08               	CMP	DWORD [-900+EBP],8
   635 000006EA 7E AB                           	JLE	L10
   636 000006EC 6A 01                           	PUSH	1
   637 000006EE 68 [0000009B]                   	PUSH	LC5
   638 000006F3 6A 07                           	PUSH	7
   639 000006F5 6A 00                           	PUSH	0
   640 000006F7 6A 1C                           	PUSH	28
   641 000006F9 FF B5 FFFFFC7C                  	PUSH	DWORD [-900+EBP]
   642 000006FF FF B5 FFFFFC68                  	PUSH	DWORD [-920+EBP]
   643 00000705 E8 000001C5                     	CALL	_putfonts8_asc_sht
   644 0000070A 83 C4 1C                        	ADD	ESP,28
   645 0000070D 83 AD FFFFFC7C 08               	SUB	DWORD [-900+EBP],8
   646 00000714 E9 FFFFFF7E                     	JMP	L10
   647 00000719                                 L27:
   648 00000719 FF B5 FFFFFC60                  	PUSH	DWORD [-928+EBP]
   649 0000071F E8 [00000000]                   	CALL	_task_sleep
   650 00000724 E8 [00000000]                   	CALL	_io_sti
   651 00000729 59                              	POP	ECX
   652 0000072A E9 FFFFFCC6                     	JMP	L2
   653                                          [SECTION .data]
   654 0000009D                                 _closebtn.1:
   655 0000009D 4F 4F 4F 4F 4F 4F 4F 4F 4F 4F   	DB	"OOOOOOOOOOOOOOO@"
       000000A7 4F 4F 4F 4F 4F 40 
   656 000000AD 4F 51 51 51 51 51 51 51 51 51   	DB	"OQQQQQQQQQQQQQ$@"
       000000B7 51 51 51 51 24 40 
   657 000000BD 4F 51 51 51 51 51 51 51 51 51   	DB	"OQQQQQQQQQQQQQ$@"
       000000C7 51 51 51 51 24 40 
   658 000000CD 4F 51 51 51 40 40 51 51 51 51   	DB	"OQQQ@@QQQQ@@QQ$@"
       000000D7 40 40 51 51 24 40 
   659 000000DD 4F 51 51 51 51 40 40 51 51 40   	DB	"OQQQQ@@QQ@@QQQ$@"
       000000E7 40 51 51 51 24 40 
   660 000000ED 4F 51 51 51 51 51 40 40 40 40   	DB	"OQQQQQ@@@@QQQQ$@"
       000000F7 51 51 51 51 24 40 
   661 000000FD 4F 51 51 51 51 51 51 40 40 51   	DB	"OQQQQQQ@@QQQQQ$@"
       00000107 51 51 51 51 24 40 
   662 0000010D 4F 51 51 51 51 51 40 40 40 40   	DB	"OQQQQQ@@@@QQQQ$@"
       00000117 51 51 51 51 24 40 
   663 0000011D 4F 51 51 51 51 40 40 51 51 40   	DB	"OQQQQ@@QQ@@QQQ$@"
       00000127 40 51 51 51 24 40 
   664 0000012D 4F 51 51 51 40 40 51 51 51 51   	DB	"OQQQ@@QQQQ@@QQ$@"
       00000137 40 40 51 51 24 40 
   665 0000013D 4F 51 51 51 51 51 51 51 51 51   	DB	"OQQQQQQQQQQQQQ$@"
       00000147 51 51 51 51 24 40 
   666 0000014D 4F 51 51 51 51 51 51 51 51 51   	DB	"OQQQQQQQQQQQQQ$@"
       00000157 51 51 51 51 24 40 
   667 0000015D 4F 24 24 24 24 24 24 24 24 24   	DB	"O$$$$$$$$$$$$$$@"
       00000167 24 24 24 24 24 40 
   668 0000016D 40 40 40 40 40 40 40 40 40 40   	DB	"@@@@@@@@@@@@@@@@"
       00000177 40 40 40 40 40 40 
   669                                          [SECTION .text]
   670 0000072F                                 	GLOBAL	_make_window8
   671 0000072F                                 _make_window8:
   672 0000072F 55                              	PUSH	EBP
   673 00000730 89 E5                           	MOV	EBP,ESP
   674 00000732 57                              	PUSH	EDI
   675 00000733 56                              	PUSH	ESI
   676 00000734 53                              	PUSH	EBX
   677 00000735 83 EC 0C                        	SUB	ESP,12
   678 00000738 80 7D 18 00                     	CMP	BYTE [24+EBP],0
   679 0000073C 0F 84 00000180                  	JE	L34
   680 00000742 C6 45 EF 07                     	MOV	BYTE [-17+EBP],7
   681 00000746 C6 45 EE 0C                     	MOV	BYTE [-18+EBP],12
   682 0000074A                                 L35:
   683 0000074A 8B 45 0C                        	MOV	EAX,DWORD [12+EBP]
   684 0000074D 6A 00                           	PUSH	0
   685 0000074F 48                              	DEC	EAX
   686 00000750 50                              	PUSH	EAX
   687 00000751 89 45 E8                        	MOV	DWORD [-24+EBP],EAX
   688 00000754 6A 00                           	PUSH	0
   689 00000756 6A 00                           	PUSH	0
   690 00000758 6A 08                           	PUSH	8
   691 0000075A FF 75 0C                        	PUSH	DWORD [12+EBP]
   692 0000075D FF 75 08                        	PUSH	DWORD [8+EBP]
   693 00000760 E8 [00000000]                   	CALL	_boxfill8
   694 00000765 8B 75 0C                        	MOV	ESI,DWORD [12+EBP]
   695 00000768 6A 01                           	PUSH	1
   696 0000076A 83 EE 02                        	SUB	ESI,2
   697 0000076D 56                              	PUSH	ESI
   698 0000076E 6A 01                           	PUSH	1
   699 00000770 6A 01                           	PUSH	1
   700 00000772 6A 07                           	PUSH	7
   701 00000774 FF 75 0C                        	PUSH	DWORD [12+EBP]
   702 00000777 FF 75 08                        	PUSH	DWORD [8+EBP]
   703 0000077A E8 [00000000]                   	CALL	_boxfill8
   704 0000077F 8B 7D 10                        	MOV	EDI,DWORD [16+EBP]
   705 00000782 83 C4 38                        	ADD	ESP,56
   706 00000785 4F                              	DEC	EDI
   707 00000786 57                              	PUSH	EDI
   708 00000787 6A 00                           	PUSH	0
   709 00000789 6A 00                           	PUSH	0
   710 0000078B 6A 00                           	PUSH	0
   711 0000078D 6A 08                           	PUSH	8
   712 0000078F FF 75 0C                        	PUSH	DWORD [12+EBP]
   713 00000792 FF 75 08                        	PUSH	DWORD [8+EBP]
   714 00000795 E8 [00000000]                   	CALL	_boxfill8
   715 0000079A 8B 5D 10                        	MOV	EBX,DWORD [16+EBP]
   716 0000079D 83 EB 02                        	SUB	EBX,2
   717 000007A0 53                              	PUSH	EBX
   718 000007A1 6A 01                           	PUSH	1
   719 000007A3 6A 01                           	PUSH	1
   720 000007A5 6A 01                           	PUSH	1
   721 000007A7 6A 07                           	PUSH	7
   722 000007A9 FF 75 0C                        	PUSH	DWORD [12+EBP]
   723 000007AC FF 75 08                        	PUSH	DWORD [8+EBP]
   724 000007AF E8 [00000000]                   	CALL	_boxfill8
   725 000007B4 83 C4 38                        	ADD	ESP,56
   726 000007B7 53                              	PUSH	EBX
   727 000007B8 56                              	PUSH	ESI
   728 000007B9 6A 01                           	PUSH	1
   729 000007BB 56                              	PUSH	ESI
   730 000007BC 6A 0F                           	PUSH	15
   731 000007BE FF 75 0C                        	PUSH	DWORD [12+EBP]
   732 000007C1 FF 75 08                        	PUSH	DWORD [8+EBP]
   733 000007C4 E8 [00000000]                   	CALL	_boxfill8
   734 000007C9 57                              	PUSH	EDI
   735 000007CA FF 75 E8                        	PUSH	DWORD [-24+EBP]
   736 000007CD 6A 00                           	PUSH	0
   737 000007CF FF 75 E8                        	PUSH	DWORD [-24+EBP]
   738 000007D2 6A 00                           	PUSH	0
   739 000007D4 FF 75 0C                        	PUSH	DWORD [12+EBP]
   740 000007D7 FF 75 08                        	PUSH	DWORD [8+EBP]
   741 000007DA E8 [00000000]                   	CALL	_boxfill8
   742 000007DF 8B 45 10                        	MOV	EAX,DWORD [16+EBP]
   743 000007E2 83 C4 38                        	ADD	ESP,56
   744 000007E5 83 E8 03                        	SUB	EAX,3
   745 000007E8 50                              	PUSH	EAX
   746 000007E9 8B 45 0C                        	MOV	EAX,DWORD [12+EBP]
   747 000007EC 83 E8 03                        	SUB	EAX,3
   748 000007EF 50                              	PUSH	EAX
   749 000007F0 6A 02                           	PUSH	2
   750 000007F2 6A 02                           	PUSH	2
   751 000007F4 6A 08                           	PUSH	8
   752 000007F6 FF 75 0C                        	PUSH	DWORD [12+EBP]
   753 000007F9 FF 75 08                        	PUSH	DWORD [8+EBP]
   754 000007FC E8 [00000000]                   	CALL	_boxfill8
   755 00000801 8B 45 0C                        	MOV	EAX,DWORD [12+EBP]
   756 00000804 6A 14                           	PUSH	20
   757 00000806 83 E8 04                        	SUB	EAX,4
   758 00000809 50                              	PUSH	EAX
   759 0000080A 6A 03                           	PUSH	3
   760 0000080C 6A 03                           	PUSH	3
   761 0000080E 0F B6 45 EE                     	MOVZX	EAX,BYTE [-18+EBP]
   762 00000812 50                              	PUSH	EAX
   763 00000813 FF 75 0C                        	PUSH	DWORD [12+EBP]
   764 00000816 FF 75 08                        	PUSH	DWORD [8+EBP]
   765 00000819 E8 [00000000]                   	CALL	_boxfill8
   766 0000081E 83 C4 38                        	ADD	ESP,56
   767 00000821 53                              	PUSH	EBX
   768 00000822 56                              	PUSH	ESI
   769 00000823 53                              	PUSH	EBX
   770 00000824 6A 01                           	PUSH	1
   771 00000826 6A 0F                           	PUSH	15
   772 00000828 FF 75 0C                        	PUSH	DWORD [12+EBP]
   773 0000082B FF 75 08                        	PUSH	DWORD [8+EBP]
   774 0000082E E8 [00000000]                   	CALL	_boxfill8
   775 00000833 57                              	PUSH	EDI
   776 00000834 FF 75 E8                        	PUSH	DWORD [-24+EBP]
   777 00000837 57                              	PUSH	EDI
   778 00000838 31 FF                           	XOR	EDI,EDI
   779 0000083A 6A 00                           	PUSH	0
   780 0000083C 6A 00                           	PUSH	0
   781 0000083E FF 75 0C                        	PUSH	DWORD [12+EBP]
   782 00000841 FF 75 08                        	PUSH	DWORD [8+EBP]
   783 00000844 E8 [00000000]                   	CALL	_boxfill8
   784 00000849 83 C4 38                        	ADD	ESP,56
   785 0000084C FF 75 14                        	PUSH	DWORD [20+EBP]
   786 0000084F 0F BE 45 EF                     	MOVSX	EAX,BYTE [-17+EBP]
   787 00000853 50                              	PUSH	EAX
   788 00000854 6A 04                           	PUSH	4
   789 00000856 6A 18                           	PUSH	24
   790 00000858 FF 75 0C                        	PUSH	DWORD [12+EBP]
   791 0000085B FF 75 08                        	PUSH	DWORD [8+EBP]
   792 0000085E E8 [00000000]                   	CALL	_putfonts8_asc
   793 00000863 83 C4 18                        	ADD	ESP,24
   794 00000866 6B 5D 0C 05                     	IMUL	EBX,DWORD [12+EBP],5
   795 0000086A C7 45 F0 00000000               	MOV	DWORD [-16+EBP],0
   796 00000871                                 L51:
   797 00000871 8B 45 0C                        	MOV	EAX,DWORD [12+EBP]
   798 00000874 8B 55 08                        	MOV	EDX,DWORD [8+EBP]
   799 00000877 01 D8                           	ADD	EAX,EBX
   800 00000879 31 F6                           	XOR	ESI,ESI
   801 0000087B 8D 4C 02 EB                     	LEA	ECX,DWORD [-21+EDX+EAX*1]
   802 0000087F                                 L50:
   803 0000087F 8A 94 3E [0000009D]             	MOV	DL,BYTE [_closebtn.1+ESI+EDI*1]
   804 00000886 80 FA 40                        	CMP	DL,64
   805 00000889 74 33                           	JE	L56
   806 0000088B 80 FA 24                        	CMP	DL,36
   807 0000088E 74 2A                           	JE	L57
   808 00000890 80 FA 51                        	CMP	DL,81
   809 00000893 B2 08                           	MOV	DL,8
   810 00000895 0F 95 C0                        	SETNE	AL
   811 00000898 28 C2                           	SUB	DL,AL
   812 0000089A                                 L45:
   813 0000089A 46                              	INC	ESI
   814 0000089B 88 11                           	MOV	BYTE [ECX],DL
   815 0000089D 41                              	INC	ECX
   816 0000089E 83 FE 0F                        	CMP	ESI,15
   817 000008A1 7E DC                           	JLE	L50
   818 000008A3 FF 45 F0                        	INC	DWORD [-16+EBP]
   819 000008A6 83 C7 10                        	ADD	EDI,16
   820 000008A9 03 5D 0C                        	ADD	EBX,DWORD [12+EBP]
   821 000008AC 83 7D F0 0D                     	CMP	DWORD [-16+EBP],13
   822 000008B0 7E BF                           	JLE	L51
   823 000008B2 8D 65 F4                        	LEA	ESP,DWORD [-12+EBP]
   824 000008B5 5B                              	POP	EBX
   825 000008B6 5E                              	POP	ESI
   826 000008B7 5F                              	POP	EDI
   827 000008B8 5D                              	POP	EBP
   828 000008B9 C3                              	RET
   829 000008BA                                 L57:
   830 000008BA B2 0F                           	MOV	DL,15
   831 000008BC EB DC                           	JMP	L45
   832 000008BE                                 L56:
   833 000008BE 31 D2                           	XOR	EDX,EDX
   834 000008C0 EB D8                           	JMP	L45
   835 000008C2                                 L34:
   836 000008C2 C6 45 EF 08                     	MOV	BYTE [-17+EBP],8
   837 000008C6 C6 45 EE 0F                     	MOV	BYTE [-18+EBP],15
   838 000008CA E9 FFFFFE7B                     	JMP	L35
   839 000008CF                                 	GLOBAL	_putfonts8_asc_sht
   840 000008CF                                 _putfonts8_asc_sht:
   841 000008CF 55                              	PUSH	EBP
   842 000008D0 89 E5                           	MOV	EBP,ESP
   843 000008D2 57                              	PUSH	EDI
   844 000008D3 56                              	PUSH	ESI
   845 000008D4 53                              	PUSH	EBX
   846 000008D5 83 EC 0C                        	SUB	ESP,12
   847 000008D8 8B 45 08                        	MOV	EAX,DWORD [8+EBP]
   848 000008DB 8B 7D 10                        	MOV	EDI,DWORD [16+EBP]
   849 000008DE 89 45 F0                        	MOV	DWORD [-16+EBP],EAX
   850 000008E1 8B 5D 14                        	MOV	EBX,DWORD [20+EBP]
   851 000008E4 8B 45 0C                        	MOV	EAX,DWORD [12+EBP]
   852 000008E7 89 45 EC                        	MOV	DWORD [-20+EBP],EAX
   853 000008EA 8B 45 1C                        	MOV	EAX,DWORD [28+EBP]
   854 000008ED 89 45 E8                        	MOV	DWORD [-24+EBP],EAX
   855 000008F0 8D 47 0F                        	LEA	EAX,DWORD [15+EDI]
   856 000008F3 50                              	PUSH	EAX
   857 000008F4 8B 45 EC                        	MOV	EAX,DWORD [-20+EBP]
   858 000008F7 8B 75 20                        	MOV	ESI,DWORD [32+EBP]
   859 000008FA 0F BE DB                        	MOVSX	EBX,BL
   860 000008FD 8D 34 F0                        	LEA	ESI,DWORD [EAX+ESI*8]
   861 00000900 8D 46 FF                        	LEA	EAX,DWORD [-1+ESI]
   862 00000903 50                              	PUSH	EAX
   863 00000904 57                              	PUSH	EDI
   864 00000905 FF 75 EC                        	PUSH	DWORD [-20+EBP]
   865 00000908 0F B6 45 18                     	MOVZX	EAX,BYTE [24+EBP]
   866 0000090C 50                              	PUSH	EAX
   867 0000090D 8B 45 F0                        	MOV	EAX,DWORD [-16+EBP]
   868 00000910 FF 70 04                        	PUSH	DWORD [4+EAX]
   869 00000913 FF 30                           	PUSH	DWORD [EAX]
   870 00000915 E8 [00000000]                   	CALL	_boxfill8
   871 0000091A FF 75 E8                        	PUSH	DWORD [-24+EBP]
   872 0000091D 53                              	PUSH	EBX
   873 0000091E 57                              	PUSH	EDI
   874 0000091F FF 75 EC                        	PUSH	DWORD [-20+EBP]
   875 00000922 8B 45 F0                        	MOV	EAX,DWORD [-16+EBP]
   876 00000925 FF 70 04                        	PUSH	DWORD [4+EAX]
   877 00000928 FF 30                           	PUSH	DWORD [EAX]
   878 0000092A E8 [00000000]                   	CALL	_putfonts8_asc
   879 0000092F 89 7D 10                        	MOV	DWORD [16+EBP],EDI
   880 00000932 8D 47 10                        	LEA	EAX,DWORD [16+EDI]
   881 00000935 89 75 14                        	MOV	DWORD [20+EBP],ESI
   882 00000938 89 45 18                        	MOV	DWORD [24+EBP],EAX
   883 0000093B 83 C4 34                        	ADD	ESP,52
   884 0000093E 8B 45 EC                        	MOV	EAX,DWORD [-20+EBP]
   885 00000941 89 45 0C                        	MOV	DWORD [12+EBP],EAX
   886 00000944 8B 45 F0                        	MOV	EAX,DWORD [-16+EBP]
   887 00000947 89 45 08                        	MOV	DWORD [8+EBP],EAX
   888 0000094A 8D 65 F4                        	LEA	ESP,DWORD [-12+EBP]
   889 0000094D 5B                              	POP	EBX
   890 0000094E 5E                              	POP	ESI
   891 0000094F 5F                              	POP	EDI
   892 00000950 5D                              	POP	EBP
   893 00000951 E9 [00000000]                   	JMP	_sheet_refresh
   894 00000956                                 	GLOBAL	_make_textbox8
   895 00000956                                 _make_textbox8:
   896 00000956 55                              	PUSH	EBP
   897 00000957 89 E5                           	MOV	EBP,ESP
   898 00000959 57                              	PUSH	EDI
   899 0000095A 56                              	PUSH	ESI
   900 0000095B 53                              	PUSH	EBX
   901 0000095C 83 EC 14                        	SUB	ESP,20
   902 0000095F 8B 45 0C                        	MOV	EAX,DWORD [12+EBP]
   903 00000962 8B 75 10                        	MOV	ESI,DWORD [16+EBP]
   904 00000965 03 45 14                        	ADD	EAX,DWORD [20+EBP]
   905 00000968 83 EE 03                        	SUB	ESI,3
   906 0000096B 56                              	PUSH	ESI
   907 0000096C 89 45 F0                        	MOV	DWORD [-16+EBP],EAX
   908 0000096F 8B 45 10                        	MOV	EAX,DWORD [16+EBP]
   909 00000972 03 45 18                        	ADD	EAX,DWORD [24+EBP]
   910 00000975 89 45 EC                        	MOV	DWORD [-20+EBP],EAX
   911 00000978 8B 45 F0                        	MOV	EAX,DWORD [-16+EBP]
   912 0000097B 40                              	INC	EAX
   913 0000097C 50                              	PUSH	EAX
   914 0000097D 89 45 E8                        	MOV	DWORD [-24+EBP],EAX
   915 00000980 8B 45 0C                        	MOV	EAX,DWORD [12+EBP]
   916 00000983 56                              	PUSH	ESI
   917 00000984 83 E8 02                        	SUB	EAX,2
   918 00000987 50                              	PUSH	EAX
   919 00000988 89 45 E4                        	MOV	DWORD [-28+EBP],EAX
   920 0000098B 8B 45 08                        	MOV	EAX,DWORD [8+EBP]
   921 0000098E 6A 0F                           	PUSH	15
   922 00000990 FF 70 04                        	PUSH	DWORD [4+EAX]
   923 00000993 FF 30                           	PUSH	DWORD [EAX]
   924 00000995 E8 [00000000]                   	CALL	_boxfill8
   925 0000099A 8B 7D 0C                        	MOV	EDI,DWORD [12+EBP]
   926 0000099D 8B 45 EC                        	MOV	EAX,DWORD [-20+EBP]
   927 000009A0 83 EF 03                        	SUB	EDI,3
   928 000009A3 40                              	INC	EAX
   929 000009A4 50                              	PUSH	EAX
   930 000009A5 89 45 E0                        	MOV	DWORD [-32+EBP],EAX
   931 000009A8 57                              	PUSH	EDI
   932 000009A9 8B 45 08                        	MOV	EAX,DWORD [8+EBP]
   933 000009AC 56                              	PUSH	ESI
   934 000009AD 57                              	PUSH	EDI
   935 000009AE 6A 0F                           	PUSH	15
   936 000009B0 FF 70 04                        	PUSH	DWORD [4+EAX]
   937 000009B3 FF 30                           	PUSH	DWORD [EAX]
   938 000009B5 E8 [00000000]                   	CALL	_boxfill8
   939 000009BA 8B 45 08                        	MOV	EAX,DWORD [8+EBP]
   940 000009BD 83 C4 38                        	ADD	ESP,56
   941 000009C0 8B 5D EC                        	MOV	EBX,DWORD [-20+EBP]
   942 000009C3 83 C3 02                        	ADD	EBX,2
   943 000009C6 53                              	PUSH	EBX
   944 000009C7 FF 75 E8                        	PUSH	DWORD [-24+EBP]
   945 000009CA 53                              	PUSH	EBX
   946 000009CB 57                              	PUSH	EDI
   947 000009CC 6A 07                           	PUSH	7
   948 000009CE FF 70 04                        	PUSH	DWORD [4+EAX]
   949 000009D1 FF 30                           	PUSH	DWORD [EAX]
   950 000009D3 E8 [00000000]                   	CALL	_boxfill8
   951 000009D8 8B 45 F0                        	MOV	EAX,DWORD [-16+EBP]
   952 000009DB 53                              	PUSH	EBX
   953 000009DC 83 C0 02                        	ADD	EAX,2
   954 000009DF 50                              	PUSH	EAX
   955 000009E0 56                              	PUSH	ESI
   956 000009E1 50                              	PUSH	EAX
   957 000009E2 8B 45 08                        	MOV	EAX,DWORD [8+EBP]
   958 000009E5 6A 07                           	PUSH	7
   959 000009E7 FF 70 04                        	PUSH	DWORD [4+EAX]
   960 000009EA FF 30                           	PUSH	DWORD [EAX]
   961 000009EC E8 [00000000]                   	CALL	_boxfill8
   962 000009F1 8B 45 08                        	MOV	EAX,DWORD [8+EBP]
   963 000009F4 83 C4 38                        	ADD	ESP,56
   964 000009F7 8B 5D 10                        	MOV	EBX,DWORD [16+EBP]
   965 000009FA 83 EB 02                        	SUB	EBX,2
   966 000009FD 8B 7D 0C                        	MOV	EDI,DWORD [12+EBP]
   967 00000A00 53                              	PUSH	EBX
   968 00000A01 4F                              	DEC	EDI
   969 00000A02 FF 75 F0                        	PUSH	DWORD [-16+EBP]
   970 00000A05 53                              	PUSH	EBX
   971 00000A06 57                              	PUSH	EDI
   972 00000A07 6A 00                           	PUSH	0
   973 00000A09 FF 70 04                        	PUSH	DWORD [4+EAX]
   974 00000A0C FF 30                           	PUSH	DWORD [EAX]
   975 00000A0E E8 [00000000]                   	CALL	_boxfill8
   976 00000A13 8B 45 08                        	MOV	EAX,DWORD [8+EBP]
   977 00000A16 FF 75 EC                        	PUSH	DWORD [-20+EBP]
   978 00000A19 FF 75 E4                        	PUSH	DWORD [-28+EBP]
   979 00000A1C 53                              	PUSH	EBX
   980 00000A1D FF 75 E4                        	PUSH	DWORD [-28+EBP]
   981 00000A20 6A 00                           	PUSH	0
   982 00000A22 FF 70 04                        	PUSH	DWORD [4+EAX]
   983 00000A25 FF 30                           	PUSH	DWORD [EAX]
   984 00000A27 E8 [00000000]                   	CALL	_boxfill8
   985 00000A2C 8B 45 08                        	MOV	EAX,DWORD [8+EBP]
   986 00000A2F 83 C4 38                        	ADD	ESP,56
   987 00000A32 FF 75 E0                        	PUSH	DWORD [-32+EBP]
   988 00000A35 FF 75 F0                        	PUSH	DWORD [-16+EBP]
   989 00000A38 FF 75 E0                        	PUSH	DWORD [-32+EBP]
   990 00000A3B FF 75 E4                        	PUSH	DWORD [-28+EBP]
   991 00000A3E 6A 08                           	PUSH	8
   992 00000A40 FF 70 04                        	PUSH	DWORD [4+EAX]
   993 00000A43 FF 30                           	PUSH	DWORD [EAX]
   994 00000A45 E8 [00000000]                   	CALL	_boxfill8
   995 00000A4A 8B 45 08                        	MOV	EAX,DWORD [8+EBP]
   996 00000A4D FF 75 E0                        	PUSH	DWORD [-32+EBP]
   997 00000A50 FF 75 E8                        	PUSH	DWORD [-24+EBP]
   998 00000A53 53                              	PUSH	EBX
   999 00000A54 FF 75 E8                        	PUSH	DWORD [-24+EBP]
  1000 00000A57 6A 08                           	PUSH	8
  1001 00000A59 FF 70 04                        	PUSH	DWORD [4+EAX]
  1002 00000A5C FF 30                           	PUSH	DWORD [EAX]
  1003 00000A5E E8 [00000000]                   	CALL	_boxfill8
  1004 00000A63 8B 45 10                        	MOV	EAX,DWORD [16+EBP]
  1005 00000A66 83 C4 38                        	ADD	ESP,56
  1006 00000A69 48                              	DEC	EAX
  1007 00000A6A FF 75 EC                        	PUSH	DWORD [-20+EBP]
  1008 00000A6D FF 75 F0                        	PUSH	DWORD [-16+EBP]
  1009 00000A70 50                              	PUSH	EAX
  1010 00000A71 57                              	PUSH	EDI
  1011 00000A72 0F B6 45 1C                     	MOVZX	EAX,BYTE [28+EBP]
  1012 00000A76 50                              	PUSH	EAX
  1013 00000A77 8B 45 08                        	MOV	EAX,DWORD [8+EBP]
  1014 00000A7A FF 70 04                        	PUSH	DWORD [4+EAX]
  1015 00000A7D FF 30                           	PUSH	DWORD [EAX]
  1016 00000A7F E8 [00000000]                   	CALL	_boxfill8
  1017 00000A84 8D 65 F4                        	LEA	ESP,DWORD [-12+EBP]
  1018 00000A87 5B                              	POP	EBX
  1019 00000A88 5E                              	POP	ESI
  1020 00000A89 5F                              	POP	EDI
  1021 00000A8A 5D                              	POP	EBP
  1022 00000A8B C3                              	RET
  1023                                          [SECTION .data]
  1024 0000017D                                 LC7:
  1025 0000017D 25 31 32 64 00                  	DB	"%12d",0x00
  1026                                          [SECTION .text]
  1027 00000A8C                                 	GLOBAL	_task_b_main
  1028 00000A8C                                 _task_b_main:
  1029 00000A8C 55                              	PUSH	EBP
  1030 00000A8D 89 E5                           	MOV	EBP,ESP
  1031 00000A8F 57                              	PUSH	EDI
  1032 00000A90 56                              	PUSH	ESI
  1033 00000A91 31 FF                           	XOR	EDI,EDI
  1034 00000A93 53                              	PUSH	EBX
  1035 00000A94 8D 85 FFFFFDD4                  	LEA	EAX,DWORD [-556+EBP]
  1036 00000A9A 81 EC 00000234                  	SUB	ESP,564
  1037 00000AA0 8D 5D D4                        	LEA	EBX,DWORD [-44+EBP]
  1038 00000AA3 C7 85 FFFFFDC0 00000000         	MOV	DWORD [-576+EBP],0
  1039 00000AAD 6A 00                           	PUSH	0
  1040 00000AAF 50                              	PUSH	EAX
  1041 00000AB0 68 00000080                     	PUSH	128
  1042 00000AB5 53                              	PUSH	EBX
  1043 00000AB6 E8 [00000000]                   	CALL	_fifo32_init
  1044 00000ABB E8 [00000000]                   	CALL	_timer_alloc
  1045 00000AC0 6A 64                           	PUSH	100
  1046 00000AC2 53                              	PUSH	EBX
  1047 00000AC3 89 C6                           	MOV	ESI,EAX
  1048 00000AC5 50                              	PUSH	EAX
  1049 00000AC6 E8 [00000000]                   	CALL	_timer_init
  1050 00000ACB 6A 64                           	PUSH	100
  1051 00000ACD 56                              	PUSH	ESI
  1052 00000ACE E8 [00000000]                   	CALL	_timer_settime
  1053 00000AD3 83 C4 24                        	ADD	ESP,36
  1054 00000AD6                                 L61:
  1055 00000AD6 8D 5D D4                        	LEA	EBX,DWORD [-44+EBP]
  1056 00000AD9 E8 [00000000]                   	CALL	_io_cli
  1057 00000ADE 53                              	PUSH	EBX
  1058 00000ADF 47                              	INC	EDI
  1059 00000AE0 E8 [00000000]                   	CALL	_fifo32_status
  1060 00000AE5 5A                              	POP	EDX
  1061 00000AE6 85 C0                           	TEST	EAX,EAX
  1062 00000AE8 74 55                           	JE	L67
  1063 00000AEA 53                              	PUSH	EBX
  1064 00000AEB E8 [00000000]                   	CALL	_fifo32_get
  1065 00000AF0 89 C3                           	MOV	EBX,EAX
  1066 00000AF2 E8 [00000000]                   	CALL	_io_sti
  1067 00000AF7 59                              	POP	ECX
  1068 00000AF8 83 FB 64                        	CMP	EBX,100
  1069 00000AFB 75 D9                           	JNE	L61
  1070 00000AFD 89 F8                           	MOV	EAX,EDI
  1071 00000AFF 8D 9D FFFFFDC4                  	LEA	EBX,DWORD [-572+EBP]
  1072 00000B05 2B 85 FFFFFDC0                  	SUB	EAX,DWORD [-576+EBP]
  1073 00000B0B 50                              	PUSH	EAX
  1074 00000B0C 68 [0000017D]                   	PUSH	LC7
  1075 00000B11 53                              	PUSH	EBX
  1076 00000B12 E8 [00000000]                   	CALL	_sprintf
  1077 00000B17 6A 0C                           	PUSH	12
  1078 00000B19 53                              	PUSH	EBX
  1079 00000B1A 6A 08                           	PUSH	8
  1080 00000B1C 6A 00                           	PUSH	0
  1081 00000B1E 6A 1C                           	PUSH	28
  1082 00000B20 6A 18                           	PUSH	24
  1083 00000B22 FF 75 08                        	PUSH	DWORD [8+EBP]
  1084 00000B25 E8 FFFFFDA5                     	CALL	_putfonts8_asc_sht
  1085 00000B2A 83 C4 28                        	ADD	ESP,40
  1086 00000B2D 89 BD FFFFFDC0                  	MOV	DWORD [-576+EBP],EDI
  1087 00000B33 6A 64                           	PUSH	100
  1088 00000B35 56                              	PUSH	ESI
  1089 00000B36 E8 [00000000]                   	CALL	_timer_settime
  1090 00000B3B 58                              	POP	EAX
  1091 00000B3C 5A                              	POP	EDX
  1092 00000B3D EB 97                           	JMP	L61
  1093 00000B3F                                 L67:
  1094 00000B3F E8 [00000000]                   	CALL	_io_sti
  1095 00000B44 EB 90                           	JMP	L61
  1096 00000B46                                 	GLOBAL	_console_task
  1097 00000B46                                 _console_task:
  1098 00000B46 55                              	PUSH	EBP
  1099 00000B47 89 E5                           	MOV	EBP,ESP
  1100 00000B49 57                              	PUSH	EDI
  1101 00000B4A 56                              	PUSH	ESI
  1102 00000B4B 53                              	PUSH	EBX
  1103 00000B4C 8D 5D D4                        	LEA	EBX,DWORD [-44+EBP]
  1104 00000B4F 81 EC 00000224                  	SUB	ESP,548
  1105 00000B55 E8 [00000000]                   	CALL	_task_now
  1106 00000B5A 50                              	PUSH	EAX
  1107 00000B5B 89 85 FFFFFDD0                  	MOV	DWORD [-560+EBP],EAX
  1108 00000B61 8D 85 FFFFFDD4                  	LEA	EAX,DWORD [-556+EBP]
  1109 00000B67 50                              	PUSH	EAX
  1110 00000B68 68 00000080                     	PUSH	128
  1111 00000B6D 53                              	PUSH	EBX
  1112 00000B6E E8 [00000000]                   	CALL	_fifo32_init
  1113 00000B73 E8 [00000000]                   	CALL	_timer_alloc
  1114 00000B78 6A 01                           	PUSH	1
  1115 00000B7A 53                              	PUSH	EBX
  1116 00000B7B 89 C7                           	MOV	EDI,EAX
  1117 00000B7D 50                              	PUSH	EAX
  1118 00000B7E E8 [00000000]                   	CALL	_timer_init
  1119 00000B83 6A 32                           	PUSH	50
  1120 00000B85 57                              	PUSH	EDI
  1121 00000B86 E8 [00000000]                   	CALL	_timer_settime
  1122 00000B8B 83 C4 24                        	ADD	ESP,36
  1123 00000B8E                                 L69:
  1124 00000B8E 8D 75 D4                        	LEA	ESI,DWORD [-44+EBP]
  1125 00000B91 E8 [00000000]                   	CALL	_io_cli
  1126 00000B96 56                              	PUSH	ESI
  1127 00000B97 E8 [00000000]                   	CALL	_fifo32_status
  1128 00000B9C 5A                              	POP	EDX
  1129 00000B9D 85 C0                           	TEST	EAX,EAX
  1130 00000B9F 74 6B                           	JE	L78
  1131 00000BA1 56                              	PUSH	ESI
  1132 00000BA2 E8 [00000000]                   	CALL	_fifo32_get
  1133 00000BA7 89 C3                           	MOV	EBX,EAX
  1134 00000BA9 E8 [00000000]                   	CALL	_io_sti
  1135 00000BAE 59                              	POP	ECX
  1136 00000BAF 83 FB 01                        	CMP	EBX,1
  1137 00000BB2 7F DA                           	JG	L69
  1138 00000BB4 85 DB                           	TEST	EBX,EBX
  1139 00000BB6 74 47                           	JE	L75
  1140 00000BB8 6A 00                           	PUSH	0
  1141 00000BBA BB 00000007                     	MOV	EBX,7
  1142 00000BBF 56                              	PUSH	ESI
  1143 00000BC0 57                              	PUSH	EDI
  1144 00000BC1 E8 [00000000]                   	CALL	_timer_init
  1145 00000BC6                                 L77:
  1146 00000BC6 83 C4 0C                        	ADD	ESP,12
  1147 00000BC9 6A 32                           	PUSH	50
  1148 00000BCB 57                              	PUSH	EDI
  1149 00000BCC E8 [00000000]                   	CALL	_timer_settime
  1150 00000BD1 8B 45 08                        	MOV	EAX,DWORD [8+EBP]
  1151 00000BD4 6A 2B                           	PUSH	43
  1152 00000BD6 6A 0F                           	PUSH	15
  1153 00000BD8 6A 1C                           	PUSH	28
  1154 00000BDA 6A 08                           	PUSH	8
  1155 00000BDC 53                              	PUSH	EBX
  1156 00000BDD FF 70 04                        	PUSH	DWORD [4+EAX]
  1157 00000BE0 FF 30                           	PUSH	DWORD [EAX]
  1158 00000BE2 E8 [00000000]                   	CALL	_boxfill8
  1159 00000BE7 83 C4 24                        	ADD	ESP,36
  1160 00000BEA 6A 2C                           	PUSH	44
  1161 00000BEC 6A 10                           	PUSH	16
  1162 00000BEE 6A 1C                           	PUSH	28
  1163 00000BF0 6A 08                           	PUSH	8
  1164 00000BF2 FF 75 08                        	PUSH	DWORD [8+EBP]
  1165 00000BF5 E8 [00000000]                   	CALL	_sheet_refresh
  1166 00000BFA 83 C4 14                        	ADD	ESP,20
  1167 00000BFD EB 8F                           	JMP	L69
  1168 00000BFF                                 L75:
  1169 00000BFF 6A 01                           	PUSH	1
  1170 00000C01 31 DB                           	XOR	EBX,EBX
  1171 00000C03 56                              	PUSH	ESI
  1172 00000C04 57                              	PUSH	EDI
  1173 00000C05 E8 [00000000]                   	CALL	_timer_init
  1174 00000C0A EB BA                           	JMP	L77
  1175 00000C0C                                 L78:
  1176 00000C0C FF B5 FFFFFDD0                  	PUSH	DWORD [-560+EBP]
  1177 00000C12 E8 [00000000]                   	CALL	_task_sleep
  1178 00000C17 E8 [00000000]                   	CALL	_io_sti
  1179 00000C1C 5B                              	POP	EBX
  1180 00000C1D E9 FFFFFF6C                     	JMP	L69
