     1 00000000                                 [FORMAT "WCOFF"]
     2 00000000                                 [INSTRSET "i486p"]
     3 00000000                                 [OPTIMIZE 1]
     4 00000000                                 [OPTION 1]
     5 00000000                                 [BITS 32]
     6 00000000                                 	EXTERN	_init_gdtidt
     7 00000000                                 	EXTERN	_init_pic
     8 00000000                                 	EXTERN	_io_sti
     9 00000000                                 	EXTERN	_fifo32_init
    10 00000000                                 	EXTERN	_init_pit
    11 00000000                                 	EXTERN	_init_keyboard
    12 00000000                                 	EXTERN	_enable_mouse
    13 00000000                                 	EXTERN	_io_out8
    14 00000000                                 	EXTERN	_memtest
    15 00000000                                 	EXTERN	_memman_init
    16 00000000                                 	EXTERN	_memman_free
    17 00000000                                 	EXTERN	_init_palette
    18 00000000                                 	EXTERN	_shtctl_init
    19 00000000                                 	EXTERN	_task_init
    20 00000000                                 	EXTERN	_task_run
    21 00000000                                 	EXTERN	_sheet_alloc
    22 00000000                                 	EXTERN	_memman_alloc_4k
    23 00000000                                 	EXTERN	_sheet_setbuf
    24 00000000                                 	EXTERN	_init_screen8
    25 00000000                                 	EXTERN	_timer_alloc
    26 00000000                                 	EXTERN	_timer_init
    27 00000000                                 	EXTERN	_timer_settime
    28 00000000                                 	EXTERN	_init_mouse_cursor8
    29 00000000                                 	EXTERN	_task_alloc
    30 00000000                                 	EXTERN	_sheet_slide
    31 00000000                                 	EXTERN	_sheet_updown
    32 00000000                                 	EXTERN	_sprintf
    33 00000000                                 	EXTERN	_memman_total
    34 00000000                                 	EXTERN	_io_cli
    35 00000000                                 	EXTERN	_fifo32_status
    36 00000000                                 	EXTERN	_fifo32_get
    37 00000000                                 	EXTERN	_boxfill8
    38 00000000                                 	EXTERN	_sheet_refresh
    39 00000000                                 	EXTERN	_mouse_decode
    40 00000000                                 	EXTERN	_keytable.0
    41 00000000                                 	EXTERN	_make_wtitle8
    42 00000000                                 	EXTERN	_task_sleep
    43 00000000                                 	EXTERN	_putfonts8_asc
    44 00000000                                 	EXTERN	_task_now
    45 00000000                                 [FILE "bootpack.c"]
    46                                          [SECTION .data]
    47 00000000                                 _keytable.0:
    48 00000000 00                              	DB	0
    49 00000001 00                              	DB	0
    50 00000002 31                              	DB	49
    51 00000003 32                              	DB	50
    52 00000004 33                              	DB	51
    53 00000005 34                              	DB	52
    54 00000006 35                              	DB	53
    55 00000007 36                              	DB	54
    56 00000008 37                              	DB	55
    57 00000009 38                              	DB	56
    58 0000000A 39                              	DB	57
    59 0000000B 30                              	DB	48
    60 0000000C 2D                              	DB	45
    61 0000000D 3D                              	DB	61
    62 0000000E 00                              	DB	0
    63 0000000F 00                              	DB	0
    64 00000010 51                              	DB	81
    65 00000011 57                              	DB	87
    66 00000012 45                              	DB	69
    67 00000013 52                              	DB	82
    68 00000014 54                              	DB	84
    69 00000015 59                              	DB	89
    70 00000016 55                              	DB	85
    71 00000017 49                              	DB	73
    72 00000018 4F                              	DB	79
    73 00000019 50                              	DB	80
    74 0000001A 5B                              	DB	91
    75 0000001B 5D                              	DB	93
    76 0000001C 00                              	DB	0
    77 0000001D 00                              	DB	0
    78 0000001E 41                              	DB	65
    79 0000001F 53                              	DB	83
    80 00000020 44                              	DB	68
    81 00000021 46                              	DB	70
    82 00000022 47                              	DB	71
    83 00000023 48                              	DB	72
    84 00000024 4A                              	DB	74
    85 00000025 4B                              	DB	75
    86 00000026 4C                              	DB	76
    87 00000027 3B                              	DB	59
    88 00000028 27                              	DB	39
    89 00000029 60                              	DB	96
    90 0000002A 00                              	DB	0
    91 0000002B 5C                              	DB	92
    92 0000002C 5A                              	DB	90
    93 0000002D 58                              	DB	88
    94 0000002E 43                              	DB	67
    95 0000002F 56                              	DB	86
    96 00000030 42                              	DB	66
    97 00000031 4E                              	DB	78
    98 00000032 4D                              	DB	77
    99 00000033 2C                              	DB	44
   100 00000034 2E                              	DB	46
   101 00000035 2F                              	DB	47
   102 00000036 00                              	DB	0
   103 00000037 2A                              	DB	42
   104 00000038 00                              	DB	0
   105 00000039 20                              	DB	32
   106 0000003A 00                              	DB	0
   107 0000003B 00                              	DB	0
   108 0000003C 00                              	DB	0
   109 0000003D 00                              	DB	0
   110 0000003E 00                              	DB	0
   111 0000003F 00                              	DB	0
   112 00000040 00                              	DB	0
   113 00000041 00                              	DB	0
   114 00000042 00                              	DB	0
   115 00000043 00                              	DB	0
   116 00000044 00                              	DB	0
   117 00000045 00                              	DB	0
   118 00000046 00                              	DB	0
   119 00000047 37                              	DB	55
   120 00000048 38                              	DB	56
   121 00000049 39                              	DB	57
   122 0000004A 2D                              	DB	45
   123 0000004B 34                              	DB	52
   124 0000004C 35                              	DB	53
   125 0000004D 36                              	DB	54
   126 0000004E 2B                              	DB	43
   127 0000004F 31                              	DB	49
   128 00000050 32                              	DB	50
   129 00000051 33                              	DB	51
   130 00000052 30                              	DB	48
   131 00000053 2E                              	DB	46
   132 00000054                                 LC0:
   133 00000054 74 61 73 6B 5F 61 00            	DB	"task_a",0x00
   134 0000005B                                 LC1:
   135 0000005B 63 6F 6E 73 6F 6C 65 00         	DB	"console",0x00
   136 00000063                                 LC2:
   137 00000063 28 25 33 64 2C 20 25 33 64 29   	DB	"(%3d, %3d)",0x00
       0000006D 00 
   138 0000006E                                 LC3:
   139 0000006E 6D 65 6D 6F 72 79 20 25 64 4D   	DB	"memory %dMB   free : %dKB",0x00
       00000078 42 20 20 20 66 72 65 65 20 3A 
       00000082 20 25 64 4B 42 00 
   140 00000088                                 LC6:
   141 00000088 5B 6C 63 72 20 25 34 64 20 25   	DB	"[lcr %4d %4d]",0x00
       00000092 34 64 5D 00 
   142 00000096                                 LC4:
   143 00000096 25 30 32 58 00                  	DB	"%02X",0x00
   144 0000009B                                 LC5:
   145 0000009B 20 00                           	DB	" ",0x00
   146                                          [SECTION .text]
   147 00000000                                 	GLOBAL	_HariMain
   148 00000000                                 _HariMain:
   149 00000000 55                              	PUSH	EBP
   150 00000001 89 E5                           	MOV	EBP,ESP
   151 00000003 57                              	PUSH	EDI
   152 00000004 56                              	PUSH	ESI
   153 00000005 53                              	PUSH	EBX
   154 00000006 8D 5D D4                        	LEA	EBX,DWORD [-44+EBP]
   155 00000009 81 EC 000003AC                  	SUB	ESP,940
   156 0000000F C7 85 FFFFFC50 00000000         	MOV	DWORD [-944+EBP],0
   157 00000019 E8 [00000000]                   	CALL	_init_gdtidt
   158 0000001E E8 [00000000]                   	CALL	_init_pic
   159 00000023 E8 [00000000]                   	CALL	_io_sti
   160 00000028 8D 85 FFFFFDA4                  	LEA	EAX,DWORD [-604+EBP]
   161 0000002E 6A 00                           	PUSH	0
   162 00000030 50                              	PUSH	EAX
   163 00000031 8D 45 D4                        	LEA	EAX,DWORD [-44+EBP]
   164 00000034 68 00000080                     	PUSH	128
   165 00000039 50                              	PUSH	EAX
   166 0000003A E8 [00000000]                   	CALL	_fifo32_init
   167 0000003F E8 [00000000]                   	CALL	_init_pit
   168 00000044 8D 55 D4                        	LEA	EDX,DWORD [-44+EBP]
   169 00000047 68 00000100                     	PUSH	256
   170 0000004C 52                              	PUSH	EDX
   171 0000004D E8 [00000000]                   	CALL	_init_keyboard
   172 00000052 8D 85 FFFFFD94                  	LEA	EAX,DWORD [-620+EBP]
   173 00000058 50                              	PUSH	EAX
   174 00000059 68 00000200                     	PUSH	512
   175 0000005E 53                              	PUSH	EBX
   176 0000005F E8 [00000000]                   	CALL	_enable_mouse
   177 00000064 83 C4 24                        	ADD	ESP,36
   178 00000067 68 000000F8                     	PUSH	248
   179 0000006C 6A 21                           	PUSH	33
   180 0000006E E8 [00000000]                   	CALL	_io_out8
   181 00000073 68 000000EF                     	PUSH	239
   182 00000078 68 000000A1                     	PUSH	161
   183 0000007D E8 [00000000]                   	CALL	_io_out8
   184 00000082 68 BFFFFFFF                     	PUSH	-1073741825
   185 00000087 68 00400000                     	PUSH	4194304
   186 0000008C E8 [00000000]                   	CALL	_memtest
   187 00000091 68 003C0000                     	PUSH	3932160
   188 00000096 89 85 FFFFFC70                  	MOV	DWORD [-912+EBP],EAX
   189 0000009C E8 [00000000]                   	CALL	_memman_init
   190 000000A1 68 0009E000                     	PUSH	647168
   191 000000A6 68 00001000                     	PUSH	4096
   192 000000AB 68 003C0000                     	PUSH	3932160
   193 000000B0 E8 [00000000]                   	CALL	_memman_free
   194 000000B5 8B 85 FFFFFC70                  	MOV	EAX,DWORD [-912+EBP]
   195 000000BB 83 C4 28                        	ADD	ESP,40
   196 000000BE 2D 00400000                     	SUB	EAX,4194304
   197 000000C3 50                              	PUSH	EAX
   198 000000C4 68 00400000                     	PUSH	4194304
   199 000000C9 68 003C0000                     	PUSH	3932160
   200 000000CE E8 [00000000]                   	CALL	_memman_free
   201 000000D3 E8 [00000000]                   	CALL	_init_palette
   202 000000D8 0F BF 05 00000FF6               	MOVSX	EAX,WORD [4086]
   203 000000DF 50                              	PUSH	EAX
   204 000000E0 0F BF 05 00000FF4               	MOVSX	EAX,WORD [4084]
   205 000000E7 50                              	PUSH	EAX
   206 000000E8 FF 35 00000FF8                  	PUSH	DWORD [4088]
   207 000000EE 68 003C0000                     	PUSH	3932160
   208 000000F3 E8 [00000000]                   	CALL	_shtctl_init
   209 000000F8 68 003C0000                     	PUSH	3932160
   210 000000FD 89 C6                           	MOV	ESI,EAX
   211 000000FF E8 [00000000]                   	CALL	_task_init
   212 00000104 83 C4 20                        	ADD	ESP,32
   213 00000107 89 85 FFFFFC54                  	MOV	DWORD [-940+EBP],EAX
   214 0000010D 89 45 EC                        	MOV	DWORD [-20+EBP],EAX
   215 00000110 6A 00                           	PUSH	0
   216 00000112 6A 01                           	PUSH	1
   217 00000114 50                              	PUSH	EAX
   218 00000115 E8 [00000000]                   	CALL	_task_run
   219 0000011A 56                              	PUSH	ESI
   220 0000011B E8 [00000000]                   	CALL	_sheet_alloc
   221 00000120 0F BF 15 00000FF6               	MOVSX	EDX,WORD [4086]
   222 00000127 89 85 FFFFFC6C                  	MOV	DWORD [-916+EBP],EAX
   223 0000012D 0F BF 05 00000FF4               	MOVSX	EAX,WORD [4084]
   224 00000134 0F AF C2                        	IMUL	EAX,EDX
   225 00000137 50                              	PUSH	EAX
   226 00000138 68 003C0000                     	PUSH	3932160
   227 0000013D E8 [00000000]                   	CALL	_memman_alloc_4k
   228 00000142 6A FF                           	PUSH	-1
   229 00000144 89 C3                           	MOV	EBX,EAX
   230 00000146 0F BF 05 00000FF6               	MOVSX	EAX,WORD [4086]
   231 0000014D 50                              	PUSH	EAX
   232 0000014E 0F BF 05 00000FF4               	MOVSX	EAX,WORD [4084]
   233 00000155 50                              	PUSH	EAX
   234 00000156 53                              	PUSH	EBX
   235 00000157 FF B5 FFFFFC6C                  	PUSH	DWORD [-916+EBP]
   236 0000015D E8 [00000000]                   	CALL	_sheet_setbuf
   237 00000162 83 C4 2C                        	ADD	ESP,44
   238 00000165 0F BF 05 00000FF6               	MOVSX	EAX,WORD [4086]
   239 0000016C 50                              	PUSH	EAX
   240 0000016D 0F BF 05 00000FF4               	MOVSX	EAX,WORD [4084]
   241 00000174 50                              	PUSH	EAX
   242 00000175 53                              	PUSH	EBX
   243 00000176 8D 5D D4                        	LEA	EBX,DWORD [-44+EBP]
   244 00000179 E8 [00000000]                   	CALL	_init_screen8
   245 0000017E 56                              	PUSH	ESI
   246 0000017F E8 [00000000]                   	CALL	_sheet_alloc
   247 00000184 68 00002080                     	PUSH	8320
   248 00000189 68 003C0000                     	PUSH	3932160
   249 0000018E 89 C7                           	MOV	EDI,EAX
   250 00000190 E8 [00000000]                   	CALL	_memman_alloc_4k
   251 00000195 6A FF                           	PUSH	-1
   252 00000197 6A 34                           	PUSH	52
   253 00000199 68 00000090                     	PUSH	144
   254 0000019E 89 85 FFFFFC5C                  	MOV	DWORD [-932+EBP],EAX
   255 000001A4 50                              	PUSH	EAX
   256 000001A5 57                              	PUSH	EDI
   257 000001A6 E8 [00000000]                   	CALL	_sheet_setbuf
   258 000001AB 83 C4 2C                        	ADD	ESP,44
   259 000001AE 6A 01                           	PUSH	1
   260 000001B0 68 [00000054]                   	PUSH	LC0
   261 000001B5 6A 34                           	PUSH	52
   262 000001B7 68 00000090                     	PUSH	144
   263 000001BC FF B5 FFFFFC5C                  	PUSH	DWORD [-932+EBP]
   264 000001C2 E8 0000065C                     	CALL	_make_window8
   265 000001C7 6A 07                           	PUSH	7
   266 000001C9 6A 10                           	PUSH	16
   267 000001CB 68 00000080                     	PUSH	128
   268 000001D0 6A 1C                           	PUSH	28
   269 000001D2 6A 08                           	PUSH	8
   270 000001D4 57                              	PUSH	EDI
   271 000001D5 E8 00000870                     	CALL	_make_textbox8
   272 000001DA 83 C4 2C                        	ADD	ESP,44
   273 000001DD C7 85 FFFFFC78 00000008         	MOV	DWORD [-904+EBP],8
   274 000001E7 C7 85 FFFFFC74 00000007         	MOV	DWORD [-908+EBP],7
   275 000001F1 E8 [00000000]                   	CALL	_timer_alloc
   276 000001F6 6A 01                           	PUSH	1
   277 000001F8 53                              	PUSH	EBX
   278 000001F9 8D 9D FFFFFC84                  	LEA	EBX,DWORD [-892+EBP]
   279 000001FF 50                              	PUSH	EAX
   280 00000200 89 85 FFFFFC60                  	MOV	DWORD [-928+EBP],EAX
   281 00000206 E8 [00000000]                   	CALL	_timer_init
   282 0000020B 6A 32                           	PUSH	50
   283 0000020D FF B5 FFFFFC60                  	PUSH	DWORD [-928+EBP]
   284 00000213 E8 [00000000]                   	CALL	_timer_settime
   285 00000218 56                              	PUSH	ESI
   286 00000219 E8 [00000000]                   	CALL	_sheet_alloc
   287 0000021E 6A 63                           	PUSH	99
   288 00000220 6A 10                           	PUSH	16
   289 00000222 6A 10                           	PUSH	16
   290 00000224 89 85 FFFFFC68                  	MOV	DWORD [-920+EBP],EAX
   291 0000022A 53                              	PUSH	EBX
   292 0000022B 50                              	PUSH	EAX
   293 0000022C E8 [00000000]                   	CALL	_sheet_setbuf
   294 00000231 83 C4 2C                        	ADD	ESP,44
   295 00000234 6A 63                           	PUSH	99
   296 00000236 53                              	PUSH	EBX
   297 00000237 BB 00000002                     	MOV	EBX,2
   298 0000023C E8 [00000000]                   	CALL	_init_mouse_cursor8
   299 00000241 0F BF 05 00000FF4               	MOVSX	EAX,WORD [4084]
   300 00000248 8D 48 F0                        	LEA	ECX,DWORD [-16+EAX]
   301 0000024B 89 C8                           	MOV	EAX,ECX
   302 0000024D 99                              	CDQ
   303 0000024E F7 FB                           	IDIV	EBX
   304 00000250 89 85 FFFFFC80                  	MOV	DWORD [-896+EBP],EAX
   305 00000256 0F BF 05 00000FF6               	MOVSX	EAX,WORD [4086]
   306 0000025D 56                              	PUSH	ESI
   307 0000025E 8D 48 D4                        	LEA	ECX,DWORD [-44+EAX]
   308 00000261 89 C8                           	MOV	EAX,ECX
   309 00000263 99                              	CDQ
   310 00000264 F7 FB                           	IDIV	EBX
   311 00000266 89 85 FFFFFC7C                  	MOV	DWORD [-900+EBP],EAX
   312 0000026C E8 [00000000]                   	CALL	_sheet_alloc
   313 00000271 68 0000A500                     	PUSH	42240
   314 00000276 68 003C0000                     	PUSH	3932160
   315 0000027B 89 85 FFFFFC64                  	MOV	DWORD [-924+EBP],EAX
   316 00000281 E8 [00000000]                   	CALL	_memman_alloc_4k
   317 00000286 6A FF                           	PUSH	-1
   318 00000288 68 000000A5                     	PUSH	165
   319 0000028D 68 00000100                     	PUSH	256
   320 00000292 89 85 FFFFFC58                  	MOV	DWORD [-936+EBP],EAX
   321 00000298 50                              	PUSH	EAX
   322 00000299 FF B5 FFFFFC64                  	PUSH	DWORD [-924+EBP]
   323 0000029F E8 [00000000]                   	CALL	_sheet_setbuf
   324 000002A4 83 C4 28                        	ADD	ESP,40
   325 000002A7 6A 00                           	PUSH	0
   326 000002A9 68 [0000005B]                   	PUSH	LC1
   327 000002AE 68 000000A5                     	PUSH	165
   328 000002B3 68 00000100                     	PUSH	256
   329 000002B8 FF B5 FFFFFC58                  	PUSH	DWORD [-936+EBP]
   330 000002BE E8 00000560                     	CALL	_make_window8
   331 000002C3 6A 00                           	PUSH	0
   332 000002C5 68 00000080                     	PUSH	128
   333 000002CA 68 000000F0                     	PUSH	240
   334 000002CF 6A 1C                           	PUSH	28
   335 000002D1 6A 08                           	PUSH	8
   336 000002D3 FF B5 FFFFFC64                  	PUSH	DWORD [-924+EBP]
   337 000002D9 E8 0000076C                     	CALL	_make_textbox8
   338 000002DE 83 C4 2C                        	ADD	ESP,44
   339 000002E1 E8 [00000000]                   	CALL	_task_alloc
   340 000002E6 68 00010000                     	PUSH	65536
   341 000002EB 89 C3                           	MOV	EBX,EAX
   342 000002ED 68 003C0000                     	PUSH	3932160
   343 000002F2 E8 [00000000]                   	CALL	_memman_alloc_4k
   344 000002F7 8B 95 FFFFFC64                  	MOV	EDX,DWORD [-924+EBP]
   345 000002FD 05 0000FFF8                     	ADD	EAX,65528
   346 00000302 89 43 48                        	MOV	DWORD [72+EBX],EAX
   347 00000305 C7 43 30 [00000C3A]             	MOV	DWORD [48+EBX],_console_task
   348 0000030C C7 43 58 00000008               	MOV	DWORD [88+EBX],8
   349 00000313 C7 43 5C 00000010               	MOV	DWORD [92+EBX],16
   350 0000031A C7 43 60 00000008               	MOV	DWORD [96+EBX],8
   351 00000321 C7 43 64 00000008               	MOV	DWORD [100+EBX],8
   352 00000328 C7 43 68 00000008               	MOV	DWORD [104+EBX],8
   353 0000032F C7 43 6C 00000008               	MOV	DWORD [108+EBX],8
   354 00000336 89 50 04                        	MOV	DWORD [4+EAX],EDX
   355 00000339 6A 02                           	PUSH	2
   356 0000033B 6A 02                           	PUSH	2
   357 0000033D 53                              	PUSH	EBX
   358 0000033E 8D 5D A4                        	LEA	EBX,DWORD [-92+EBP]
   359 00000341 E8 [00000000]                   	CALL	_task_run
   360 00000346 6A 00                           	PUSH	0
   361 00000348 6A 00                           	PUSH	0
   362 0000034A FF B5 FFFFFC6C                  	PUSH	DWORD [-916+EBP]
   363 00000350 E8 [00000000]                   	CALL	_sheet_slide
   364 00000355 83 C4 20                        	ADD	ESP,32
   365 00000358 6A 04                           	PUSH	4
   366 0000035A 6A 20                           	PUSH	32
   367 0000035C FF B5 FFFFFC64                  	PUSH	DWORD [-924+EBP]
   368 00000362 E8 [00000000]                   	CALL	_sheet_slide
   369 00000367 6A 38                           	PUSH	56
   370 00000369 6A 40                           	PUSH	64
   371 0000036B 57                              	PUSH	EDI
   372 0000036C E8 [00000000]                   	CALL	_sheet_slide
   373 00000371 FF B5 FFFFFC7C                  	PUSH	DWORD [-900+EBP]
   374 00000377 FF B5 FFFFFC80                  	PUSH	DWORD [-896+EBP]
   375 0000037D FF B5 FFFFFC68                  	PUSH	DWORD [-920+EBP]
   376 00000383 E8 [00000000]                   	CALL	_sheet_slide
   377 00000388 83 C4 24                        	ADD	ESP,36
   378 0000038B 6A 00                           	PUSH	0
   379 0000038D FF B5 FFFFFC6C                  	PUSH	DWORD [-916+EBP]
   380 00000393 E8 [00000000]                   	CALL	_sheet_updown
   381 00000398 6A 01                           	PUSH	1
   382 0000039A FF B5 FFFFFC64                  	PUSH	DWORD [-924+EBP]
   383 000003A0 E8 [00000000]                   	CALL	_sheet_updown
   384 000003A5 6A 02                           	PUSH	2
   385 000003A7 57                              	PUSH	EDI
   386 000003A8 E8 [00000000]                   	CALL	_sheet_updown
   387 000003AD 6A 03                           	PUSH	3
   388 000003AF FF B5 FFFFFC68                  	PUSH	DWORD [-920+EBP]
   389 000003B5 E8 [00000000]                   	CALL	_sheet_updown
   390 000003BA 83 C4 20                        	ADD	ESP,32
   391 000003BD FF B5 FFFFFC7C                  	PUSH	DWORD [-900+EBP]
   392 000003C3 FF B5 FFFFFC80                  	PUSH	DWORD [-896+EBP]
   393 000003C9 68 [00000063]                   	PUSH	LC2
   394 000003CE 53                              	PUSH	EBX
   395 000003CF E8 [00000000]                   	CALL	_sprintf
   396 000003D4 6A 0A                           	PUSH	10
   397 000003D6 53                              	PUSH	EBX
   398 000003D7 6A 0E                           	PUSH	14
   399 000003D9 6A 07                           	PUSH	7
   400 000003DB 6A 00                           	PUSH	0
   401 000003DD 6A 00                           	PUSH	0
   402 000003DF FF B5 FFFFFC6C                  	PUSH	DWORD [-916+EBP]
   403 000003E5 E8 000005D9                     	CALL	_putfonts8_asc_sht
   404 000003EA 83 C4 2C                        	ADD	ESP,44
   405 000003ED 68 003C0000                     	PUSH	3932160
   406 000003F2 E8 [00000000]                   	CALL	_memman_total
   407 000003F7 C1 AD FFFFFC70 14               	SHR	DWORD [-912+EBP],20
   408 000003FE C1 E8 0A                        	SHR	EAX,10
   409 00000401 89 04 24                        	MOV	DWORD [ESP],EAX
   410 00000404 FF B5 FFFFFC70                  	PUSH	DWORD [-912+EBP]
   411 0000040A 68 [0000006E]                   	PUSH	LC3
   412 0000040F 53                              	PUSH	EBX
   413 00000410 E8 [00000000]                   	CALL	_sprintf
   414 00000415 6A 28                           	PUSH	40
   415 00000417 53                              	PUSH	EBX
   416 00000418 6A 0E                           	PUSH	14
   417 0000041A 6A 07                           	PUSH	7
   418 0000041C 6A 20                           	PUSH	32
   419 0000041E 6A 00                           	PUSH	0
   420 00000420 FF B5 FFFFFC6C                  	PUSH	DWORD [-916+EBP]
   421 00000426 E8 00000598                     	CALL	_putfonts8_asc_sht
   422 0000042B 83 C4 2C                        	ADD	ESP,44
   423 0000042E                                 L2:
   424 0000042E 8D 75 D4                        	LEA	ESI,DWORD [-44+EBP]
   425 00000431 E8 [00000000]                   	CALL	_io_cli
   426 00000436 56                              	PUSH	ESI
   427 00000437 E8 [00000000]                   	CALL	_fifo32_status
   428 0000043C 5B                              	POP	EBX
   429 0000043D 85 C0                           	TEST	EAX,EAX
   430 0000043F 0F 84 000003C8                  	JE	L31
   431 00000445 56                              	PUSH	ESI
   432 00000446 E8 [00000000]                   	CALL	_fifo32_get
   433 0000044B 89 C3                           	MOV	EBX,EAX
   434 0000044D E8 [00000000]                   	CALL	_io_sti
   435 00000452 5A                              	POP	EDX
   436 00000453 8D 83 FFFFFF00                  	LEA	EAX,DWORD [-256+EBX]
   437 00000459 3D 000000FF                     	CMP	EAX,255
   438 0000045E 0F 86 0000020B                  	JBE	L32
   439 00000464 8D 83 FFFFFE00                  	LEA	EAX,DWORD [-512+EBX]
   440 0000046A 3D 000000FF                     	CMP	EAX,255
   441 0000046F 0F 86 00000094                  	JBE	L33
   442 00000475 83 FB 01                        	CMP	EBX,1
   443 00000478 7F B4                           	JG	L2
   444 0000047A 85 DB                           	TEST	EBX,EBX
   445 0000047C 74 71                           	JE	L27
   446 0000047E 6A 00                           	PUSH	0
   447 00000480 56                              	PUSH	ESI
   448 00000481 FF B5 FFFFFC60                  	PUSH	DWORD [-928+EBP]
   449 00000487 E8 [00000000]                   	CALL	_timer_init
   450 0000048C C7 85 FFFFFC74 00000000         	MOV	DWORD [-908+EBP],0
   451 00000496                                 L30:
   452 00000496 83 C4 0C                        	ADD	ESP,12
   453 00000499 6A 32                           	PUSH	50
   454 0000049B FF B5 FFFFFC60                  	PUSH	DWORD [-928+EBP]
   455 000004A1 E8 [00000000]                   	CALL	_timer_settime
   456 000004A6 8B 85 FFFFFC78                  	MOV	EAX,DWORD [-904+EBP]
   457 000004AC 6A 2B                           	PUSH	43
   458 000004AE 83 C0 07                        	ADD	EAX,7
   459 000004B1 50                              	PUSH	EAX
   460 000004B2 6A 1C                           	PUSH	28
   461 000004B4 FF B5 FFFFFC78                  	PUSH	DWORD [-904+EBP]
   462 000004BA FF B5 FFFFFC74                  	PUSH	DWORD [-908+EBP]
   463 000004C0 FF 77 04                        	PUSH	DWORD [4+EDI]
   464 000004C3 FF 37                           	PUSH	DWORD [EDI]
   465 000004C5 E8 [00000000]                   	CALL	_boxfill8
   466 000004CA 8B 85 FFFFFC78                  	MOV	EAX,DWORD [-904+EBP]
   467 000004D0 83 C4 24                        	ADD	ESP,36
   468 000004D3 83 C0 08                        	ADD	EAX,8
   469 000004D6 6A 2C                           	PUSH	44
   470 000004D8 50                              	PUSH	EAX
   471 000004D9 6A 1C                           	PUSH	28
   472 000004DB FF B5 FFFFFC78                  	PUSH	DWORD [-904+EBP]
   473 000004E1 57                              	PUSH	EDI
   474 000004E2 E8 [00000000]                   	CALL	_sheet_refresh
   475 000004E7 83 C4 14                        	ADD	ESP,20
   476 000004EA E9 FFFFFF3F                     	JMP	L2
   477 000004EF                                 L27:
   478 000004EF 6A 01                           	PUSH	1
   479 000004F1 56                              	PUSH	ESI
   480 000004F2 FF B5 FFFFFC60                  	PUSH	DWORD [-928+EBP]
   481 000004F8 E8 [00000000]                   	CALL	_timer_init
   482 000004FD C7 85 FFFFFC74 00000007         	MOV	DWORD [-908+EBP],7
   483 00000507 EB 8D                           	JMP	L30
   484 00000509                                 L33:
   485 00000509 0F B6 C3                        	MOVZX	EAX,BL
   486 0000050C 50                              	PUSH	EAX
   487 0000050D 8D 85 FFFFFD94                  	LEA	EAX,DWORD [-620+EBP]
   488 00000513 50                              	PUSH	EAX
   489 00000514 E8 [00000000]                   	CALL	_mouse_decode
   490 00000519 5A                              	POP	EDX
   491 0000051A 59                              	POP	ECX
   492 0000051B 85 C0                           	TEST	EAX,EAX
   493 0000051D 0F 84 FFFFFF0B                  	JE	L2
   494 00000523 FF B5 FFFFFD9C                  	PUSH	DWORD [-612+EBP]
   495 00000529 FF B5 FFFFFD98                  	PUSH	DWORD [-616+EBP]
   496 0000052F 68 [00000088]                   	PUSH	LC6
   497 00000534 8D 5D A4                        	LEA	EBX,DWORD [-92+EBP]
   498 00000537 53                              	PUSH	EBX
   499 00000538 E8 [00000000]                   	CALL	_sprintf
   500 0000053D 83 C4 10                        	ADD	ESP,16
   501 00000540 8B 85 FFFFFDA0                  	MOV	EAX,DWORD [-608+EBP]
   502 00000546 A9 00000001                     	TEST	EAX,1
   503 0000054B 74 04                           	JE	L17
   504 0000054D C6 45 A5 4C                     	MOV	BYTE [-91+EBP],76
   505 00000551                                 L17:
   506 00000551 A9 00000002                     	TEST	EAX,2
   507 00000556 74 04                           	JE	L18
   508 00000558 C6 45 A7 52                     	MOV	BYTE [-89+EBP],82
   509 0000055C                                 L18:
   510 0000055C 83 E0 04                        	AND	EAX,4
   511 0000055F 74 04                           	JE	L19
   512 00000561 C6 45 A6 43                     	MOV	BYTE [-90+EBP],67
   513 00000565                                 L19:
   514 00000565 6A 0F                           	PUSH	15
   515 00000567 53                              	PUSH	EBX
   516 00000568 6A 0E                           	PUSH	14
   517 0000056A 6A 07                           	PUSH	7
   518 0000056C 6A 10                           	PUSH	16
   519 0000056E 6A 20                           	PUSH	32
   520 00000570 FF B5 FFFFFC6C                  	PUSH	DWORD [-916+EBP]
   521 00000576 E8 00000448                     	CALL	_putfonts8_asc_sht
   522 0000057B 8B 95 FFFFFD98                  	MOV	EDX,DWORD [-616+EBP]
   523 00000581 8B 85 FFFFFD9C                  	MOV	EAX,DWORD [-612+EBP]
   524 00000587 83 C4 1C                        	ADD	ESP,28
   525 0000058A 01 85 FFFFFC7C                  	ADD	DWORD [-900+EBP],EAX
   526 00000590 01 95 FFFFFC80                  	ADD	DWORD [-896+EBP],EDX
   527 00000596 0F 88 000000C4                  	JS	L34
   528 0000059C                                 L20:
   529 0000059C 83 BD FFFFFC7C 00               	CMP	DWORD [-900+EBP],0
   530 000005A3 0F 88 000000A8                  	JS	L35
   531 000005A9                                 L21:
   532 000005A9 0F BF 05 00000FF4               	MOVSX	EAX,WORD [4084]
   533 000005B0 48                              	DEC	EAX
   534 000005B1 39 85 FFFFFC80                  	CMP	DWORD [-896+EBP],EAX
   535 000005B7 7E 06                           	JLE	L22
   536 000005B9 89 85 FFFFFC80                  	MOV	DWORD [-896+EBP],EAX
   537 000005BF                                 L22:
   538 000005BF 0F BF 05 00000FF6               	MOVSX	EAX,WORD [4086]
   539 000005C6 48                              	DEC	EAX
   540 000005C7 39 85 FFFFFC7C                  	CMP	DWORD [-900+EBP],EAX
   541 000005CD 7E 06                           	JLE	L23
   542 000005CF 89 85 FFFFFC7C                  	MOV	DWORD [-900+EBP],EAX
   543 000005D5                                 L23:
   544 000005D5 FF B5 FFFFFC7C                  	PUSH	DWORD [-900+EBP]
   545 000005DB FF B5 FFFFFC80                  	PUSH	DWORD [-896+EBP]
   546 000005E1 68 [00000063]                   	PUSH	LC2
   547 000005E6 53                              	PUSH	EBX
   548 000005E7 E8 [00000000]                   	CALL	_sprintf
   549 000005EC 6A 0A                           	PUSH	10
   550 000005EE 53                              	PUSH	EBX
   551 000005EF 6A 0E                           	PUSH	14
   552 000005F1 6A 07                           	PUSH	7
   553 000005F3 6A 00                           	PUSH	0
   554 000005F5 6A 00                           	PUSH	0
   555 000005F7 FF B5 FFFFFC6C                  	PUSH	DWORD [-916+EBP]
   556 000005FD E8 000003C1                     	CALL	_putfonts8_asc_sht
   557 00000602 83 C4 2C                        	ADD	ESP,44
   558 00000605 FF B5 FFFFFC7C                  	PUSH	DWORD [-900+EBP]
   559 0000060B FF B5 FFFFFC80                  	PUSH	DWORD [-896+EBP]
   560 00000611 FF B5 FFFFFC68                  	PUSH	DWORD [-920+EBP]
   561 00000617 E8 [00000000]                   	CALL	_sheet_slide
   562 0000061C 83 C4 0C                        	ADD	ESP,12
   563 0000061F F7 85 FFFFFDA0 00000001         	TEST	DWORD [-608+EBP],1
   564 00000629 0F 84 FFFFFDFF                  	JE	L2
   565 0000062F 8B 85 FFFFFC7C                  	MOV	EAX,DWORD [-900+EBP]
   566 00000635 83 E8 08                        	SUB	EAX,8
   567 00000638 50                              	PUSH	EAX
   568 00000639 8B 85 FFFFFC80                  	MOV	EAX,DWORD [-896+EBP]
   569 0000063F 83 E8 50                        	SUB	EAX,80
   570 00000642 50                              	PUSH	EAX
   571 00000643 57                              	PUSH	EDI
   572 00000644 E8 [00000000]                   	CALL	_sheet_slide
   573 00000649 83 C4 0C                        	ADD	ESP,12
   574 0000064C E9 FFFFFDDD                     	JMP	L2
   575 00000651                                 L35:
   576 00000651 C7 85 FFFFFC7C 00000000         	MOV	DWORD [-900+EBP],0
   577 0000065B E9 FFFFFF49                     	JMP	L21
   578 00000660                                 L34:
   579 00000660 C7 85 FFFFFC80 00000000         	MOV	DWORD [-896+EBP],0
   580 0000066A E9 FFFFFF2D                     	JMP	L20
   581 0000066F                                 L32:
   582 0000066F 50                              	PUSH	EAX
   583 00000670 8D 75 A4                        	LEA	ESI,DWORD [-92+EBP]
   584 00000673 68 [00000096]                   	PUSH	LC4
   585 00000678 56                              	PUSH	ESI
   586 00000679 E8 [00000000]                   	CALL	_sprintf
   587 0000067E 6A 02                           	PUSH	2
   588 00000680 56                              	PUSH	ESI
   589 00000681 6A 0E                           	PUSH	14
   590 00000683 6A 07                           	PUSH	7
   591 00000685 6A 10                           	PUSH	16
   592 00000687 6A 00                           	PUSH	0
   593 00000689 FF B5 FFFFFC6C                  	PUSH	DWORD [-916+EBP]
   594 0000068F E8 0000032F                     	CALL	_putfonts8_asc_sht
   595 00000694 83 C4 28                        	ADD	ESP,40
   596 00000697 81 FB 00000153                  	CMP	EBX,339
   597 0000069D 7F 3C                           	JG	L8
   598 0000069F 8A 83 [FFFFFF00]                	MOV	AL,BYTE [_keytable.0-256+EBX]
   599 000006A5 84 C0                           	TEST	AL,AL
   600 000006A7 74 32                           	JE	L8
   601 000006A9 81 BD FFFFFC78 0000008F         	CMP	DWORD [-904+EBP],143
   602 000006B3 7F 26                           	JG	L8
   603 000006B5 6A 01                           	PUSH	1
   604 000006B7 88 45 A4                        	MOV	BYTE [-92+EBP],AL
   605 000006BA 56                              	PUSH	ESI
   606 000006BB 6A 07                           	PUSH	7
   607 000006BD 6A 00                           	PUSH	0
   608 000006BF 6A 1C                           	PUSH	28
   609 000006C1 FF B5 FFFFFC78                  	PUSH	DWORD [-904+EBP]
   610 000006C7 57                              	PUSH	EDI
   611 000006C8 C6 45 A5 00                     	MOV	BYTE [-91+EBP],0
   612 000006CC E8 000002F2                     	CALL	_putfonts8_asc_sht
   613 000006D1 83 C4 1C                        	ADD	ESP,28
   614 000006D4 83 85 FFFFFC78 08               	ADD	DWORD [-904+EBP],8
   615 000006DB                                 L8:
   616 000006DB 81 FB 0000010E                  	CMP	EBX,270
   617 000006E1 0F 84 000000F1                  	JE	L36
   618 000006E7                                 L10:
   619 000006E7 81 FB 0000010F                  	CMP	EBX,271
   620 000006ED 74 46                           	JE	L37
   621 000006EF                                 L11:
   622 000006EF 8B 85 FFFFFC78                  	MOV	EAX,DWORD [-904+EBP]
   623 000006F5 6A 2B                           	PUSH	43
   624 000006F7 83 C0 07                        	ADD	EAX,7
   625 000006FA 50                              	PUSH	EAX
   626 000006FB 6A 1C                           	PUSH	28
   627 000006FD FF B5 FFFFFC78                  	PUSH	DWORD [-904+EBP]
   628 00000703 FF B5 FFFFFC74                  	PUSH	DWORD [-908+EBP]
   629 00000709 FF 77 04                        	PUSH	DWORD [4+EDI]
   630 0000070C FF 37                           	PUSH	DWORD [EDI]
   631 0000070E E8 [00000000]                   	CALL	_boxfill8
   632 00000713 8B 85 FFFFFC78                  	MOV	EAX,DWORD [-904+EBP]
   633 00000719 6A 2C                           	PUSH	44
   634 0000071B 83 C0 08                        	ADD	EAX,8
   635 0000071E 50                              	PUSH	EAX
   636 0000071F 6A 1C                           	PUSH	28
   637 00000721 FF B5 FFFFFC78                  	PUSH	DWORD [-904+EBP]
   638 00000727 57                              	PUSH	EDI
   639 00000728 E8 [00000000]                   	CALL	_sheet_refresh
   640 0000072D 83 C4 30                        	ADD	ESP,48
   641 00000730 E9 FFFFFCF9                     	JMP	L2
   642 00000735                                 L37:
   643 00000735 83 BD FFFFFC50 00               	CMP	DWORD [-944+EBP],0
   644 0000073C 75 69                           	JNE	L12
   645 0000073E 6A 00                           	PUSH	0
   646 00000740 68 [00000054]                   	PUSH	LC0
   647 00000745 FF 77 04                        	PUSH	DWORD [4+EDI]
   648 00000748 FF B5 FFFFFC5C                  	PUSH	DWORD [-932+EBP]
   649 0000074E C7 85 FFFFFC50 00000001         	MOV	DWORD [-944+EBP],1
   650 00000758 E8 [00000000]                   	CALL	_make_wtitle8
   651 0000075D 8B 9D FFFFFC64                  	MOV	EBX,DWORD [-924+EBP]
   652 00000763 6A 01                           	PUSH	1
   653 00000765 68 [0000005B]                   	PUSH	LC1
   654 0000076A FF 73 04                        	PUSH	DWORD [4+EBX]
   655 0000076D                                 L29:
   656 0000076D FF B5 FFFFFC58                  	PUSH	DWORD [-936+EBP]
   657 00000773 E8 [00000000]                   	CALL	_make_wtitle8
   658 00000778 83 C4 20                        	ADD	ESP,32
   659 0000077B 6A 15                           	PUSH	21
   660 0000077D FF 77 04                        	PUSH	DWORD [4+EDI]
   661 00000780 6A 00                           	PUSH	0
   662 00000782 6A 00                           	PUSH	0
   663 00000784 57                              	PUSH	EDI
   664 00000785 E8 [00000000]                   	CALL	_sheet_refresh
   665 0000078A 8B 95 FFFFFC64                  	MOV	EDX,DWORD [-924+EBP]
   666 00000790 6A 15                           	PUSH	21
   667 00000792 FF 72 04                        	PUSH	DWORD [4+EDX]
   668 00000795 6A 00                           	PUSH	0
   669 00000797 6A 00                           	PUSH	0
   670 00000799 52                              	PUSH	EDX
   671 0000079A E8 [00000000]                   	CALL	_sheet_refresh
   672 0000079F 83 C4 28                        	ADD	ESP,40
   673 000007A2 E9 FFFFFF48                     	JMP	L11
   674 000007A7                                 L12:
   675 000007A7 6A 01                           	PUSH	1
   676 000007A9 68 [00000054]                   	PUSH	LC0
   677 000007AE FF 77 04                        	PUSH	DWORD [4+EDI]
   678 000007B1 FF B5 FFFFFC5C                  	PUSH	DWORD [-932+EBP]
   679 000007B7 C7 85 FFFFFC50 00000000         	MOV	DWORD [-944+EBP],0
   680 000007C1 E8 [00000000]                   	CALL	_make_wtitle8
   681 000007C6 8B 85 FFFFFC64                  	MOV	EAX,DWORD [-924+EBP]
   682 000007CC 6A 00                           	PUSH	0
   683 000007CE 68 [0000005B]                   	PUSH	LC1
   684 000007D3 FF 70 04                        	PUSH	DWORD [4+EAX]
   685 000007D6 EB 95                           	JMP	L29
   686 000007D8                                 L36:
   687 000007D8 83 BD FFFFFC78 08               	CMP	DWORD [-904+EBP],8
   688 000007DF 0F 8E FFFFFF02                  	JLE	L10
   689 000007E5 6A 01                           	PUSH	1
   690 000007E7 68 [0000009B]                   	PUSH	LC5
   691 000007EC 6A 07                           	PUSH	7
   692 000007EE 6A 00                           	PUSH	0
   693 000007F0 6A 1C                           	PUSH	28
   694 000007F2 FF B5 FFFFFC78                  	PUSH	DWORD [-904+EBP]
   695 000007F8 57                              	PUSH	EDI
   696 000007F9 E8 000001C5                     	CALL	_putfonts8_asc_sht
   697 000007FE 83 C4 1C                        	ADD	ESP,28
   698 00000801 83 AD FFFFFC78 08               	SUB	DWORD [-904+EBP],8
   699 00000808 E9 FFFFFEDA                     	JMP	L10
   700 0000080D                                 L31:
   701 0000080D FF B5 FFFFFC54                  	PUSH	DWORD [-940+EBP]
   702 00000813 E8 [00000000]                   	CALL	_task_sleep
   703 00000818 E8 [00000000]                   	CALL	_io_sti
   704 0000081D 59                              	POP	ECX
   705 0000081E E9 FFFFFC0B                     	JMP	L2
   706                                          [SECTION .data]
   707 0000009D                                 _closebtn.1:
   708 0000009D 4F 4F 4F 4F 4F 4F 4F 4F 4F 4F   	DB	"OOOOOOOOOOOOOOO@"
       000000A7 4F 4F 4F 4F 4F 40 
   709 000000AD 4F 51 51 51 51 51 51 51 51 51   	DB	"OQQQQQQQQQQQQQ$@"
       000000B7 51 51 51 51 24 40 
   710 000000BD 4F 51 51 51 51 51 51 51 51 51   	DB	"OQQQQQQQQQQQQQ$@"
       000000C7 51 51 51 51 24 40 
   711 000000CD 4F 51 51 51 40 40 51 51 51 51   	DB	"OQQQ@@QQQQ@@QQ$@"
       000000D7 40 40 51 51 24 40 
   712 000000DD 4F 51 51 51 51 40 40 51 51 40   	DB	"OQQQQ@@QQ@@QQQ$@"
       000000E7 40 51 51 51 24 40 
   713 000000ED 4F 51 51 51 51 51 40 40 40 40   	DB	"OQQQQQ@@@@QQQQ$@"
       000000F7 51 51 51 51 24 40 
   714 000000FD 4F 51 51 51 51 51 51 40 40 51   	DB	"OQQQQQQ@@QQQQQ$@"
       00000107 51 51 51 51 24 40 
   715 0000010D 4F 51 51 51 51 51 40 40 40 40   	DB	"OQQQQQ@@@@QQQQ$@"
       00000117 51 51 51 51 24 40 
   716 0000011D 4F 51 51 51 51 40 40 51 51 40   	DB	"OQQQQ@@QQ@@QQQ$@"
       00000127 40 51 51 51 24 40 
   717 0000012D 4F 51 51 51 40 40 51 51 51 51   	DB	"OQQQ@@QQQQ@@QQ$@"
       00000137 40 40 51 51 24 40 
   718 0000013D 4F 51 51 51 51 51 51 51 51 51   	DB	"OQQQQQQQQQQQQQ$@"
       00000147 51 51 51 51 24 40 
   719 0000014D 4F 51 51 51 51 51 51 51 51 51   	DB	"OQQQQQQQQQQQQQ$@"
       00000157 51 51 51 51 24 40 
   720 0000015D 4F 24 24 24 24 24 24 24 24 24   	DB	"O$$$$$$$$$$$$$$@"
       00000167 24 24 24 24 24 40 
   721 0000016D 40 40 40 40 40 40 40 40 40 40   	DB	"@@@@@@@@@@@@@@@@"
       00000177 40 40 40 40 40 40 
   722                                          [SECTION .text]
   723 00000823                                 	GLOBAL	_make_window8
   724 00000823                                 _make_window8:
   725 00000823 55                              	PUSH	EBP
   726 00000824 89 E5                           	MOV	EBP,ESP
   727 00000826 57                              	PUSH	EDI
   728 00000827 56                              	PUSH	ESI
   729 00000828 53                              	PUSH	EBX
   730 00000829 83 EC 0C                        	SUB	ESP,12
   731 0000082C 80 7D 18 00                     	CMP	BYTE [24+EBP],0
   732 00000830 0F 84 00000180                  	JE	L39
   733 00000836 C6 45 EF 07                     	MOV	BYTE [-17+EBP],7
   734 0000083A C6 45 EE 0C                     	MOV	BYTE [-18+EBP],12
   735 0000083E                                 L40:
   736 0000083E 8B 45 0C                        	MOV	EAX,DWORD [12+EBP]
   737 00000841 6A 00                           	PUSH	0
   738 00000843 48                              	DEC	EAX
   739 00000844 50                              	PUSH	EAX
   740 00000845 89 45 E8                        	MOV	DWORD [-24+EBP],EAX
   741 00000848 6A 00                           	PUSH	0
   742 0000084A 6A 00                           	PUSH	0
   743 0000084C 6A 08                           	PUSH	8
   744 0000084E FF 75 0C                        	PUSH	DWORD [12+EBP]
   745 00000851 FF 75 08                        	PUSH	DWORD [8+EBP]
   746 00000854 E8 [00000000]                   	CALL	_boxfill8
   747 00000859 8B 75 0C                        	MOV	ESI,DWORD [12+EBP]
   748 0000085C 6A 01                           	PUSH	1
   749 0000085E 83 EE 02                        	SUB	ESI,2
   750 00000861 56                              	PUSH	ESI
   751 00000862 6A 01                           	PUSH	1
   752 00000864 6A 01                           	PUSH	1
   753 00000866 6A 07                           	PUSH	7
   754 00000868 FF 75 0C                        	PUSH	DWORD [12+EBP]
   755 0000086B FF 75 08                        	PUSH	DWORD [8+EBP]
   756 0000086E E8 [00000000]                   	CALL	_boxfill8
   757 00000873 8B 7D 10                        	MOV	EDI,DWORD [16+EBP]
   758 00000876 83 C4 38                        	ADD	ESP,56
   759 00000879 4F                              	DEC	EDI
   760 0000087A 57                              	PUSH	EDI
   761 0000087B 6A 00                           	PUSH	0
   762 0000087D 6A 00                           	PUSH	0
   763 0000087F 6A 00                           	PUSH	0
   764 00000881 6A 08                           	PUSH	8
   765 00000883 FF 75 0C                        	PUSH	DWORD [12+EBP]
   766 00000886 FF 75 08                        	PUSH	DWORD [8+EBP]
   767 00000889 E8 [00000000]                   	CALL	_boxfill8
   768 0000088E 8B 5D 10                        	MOV	EBX,DWORD [16+EBP]
   769 00000891 83 EB 02                        	SUB	EBX,2
   770 00000894 53                              	PUSH	EBX
   771 00000895 6A 01                           	PUSH	1
   772 00000897 6A 01                           	PUSH	1
   773 00000899 6A 01                           	PUSH	1
   774 0000089B 6A 07                           	PUSH	7
   775 0000089D FF 75 0C                        	PUSH	DWORD [12+EBP]
   776 000008A0 FF 75 08                        	PUSH	DWORD [8+EBP]
   777 000008A3 E8 [00000000]                   	CALL	_boxfill8
   778 000008A8 83 C4 38                        	ADD	ESP,56
   779 000008AB 53                              	PUSH	EBX
   780 000008AC 56                              	PUSH	ESI
   781 000008AD 6A 01                           	PUSH	1
   782 000008AF 56                              	PUSH	ESI
   783 000008B0 6A 0F                           	PUSH	15
   784 000008B2 FF 75 0C                        	PUSH	DWORD [12+EBP]
   785 000008B5 FF 75 08                        	PUSH	DWORD [8+EBP]
   786 000008B8 E8 [00000000]                   	CALL	_boxfill8
   787 000008BD 57                              	PUSH	EDI
   788 000008BE FF 75 E8                        	PUSH	DWORD [-24+EBP]
   789 000008C1 6A 00                           	PUSH	0
   790 000008C3 FF 75 E8                        	PUSH	DWORD [-24+EBP]
   791 000008C6 6A 00                           	PUSH	0
   792 000008C8 FF 75 0C                        	PUSH	DWORD [12+EBP]
   793 000008CB FF 75 08                        	PUSH	DWORD [8+EBP]
   794 000008CE E8 [00000000]                   	CALL	_boxfill8
   795 000008D3 8B 45 10                        	MOV	EAX,DWORD [16+EBP]
   796 000008D6 83 C4 38                        	ADD	ESP,56
   797 000008D9 83 E8 03                        	SUB	EAX,3
   798 000008DC 50                              	PUSH	EAX
   799 000008DD 8B 45 0C                        	MOV	EAX,DWORD [12+EBP]
   800 000008E0 83 E8 03                        	SUB	EAX,3
   801 000008E3 50                              	PUSH	EAX
   802 000008E4 6A 02                           	PUSH	2
   803 000008E6 6A 02                           	PUSH	2
   804 000008E8 6A 08                           	PUSH	8
   805 000008EA FF 75 0C                        	PUSH	DWORD [12+EBP]
   806 000008ED FF 75 08                        	PUSH	DWORD [8+EBP]
   807 000008F0 E8 [00000000]                   	CALL	_boxfill8
   808 000008F5 8B 45 0C                        	MOV	EAX,DWORD [12+EBP]
   809 000008F8 6A 14                           	PUSH	20
   810 000008FA 83 E8 04                        	SUB	EAX,4
   811 000008FD 50                              	PUSH	EAX
   812 000008FE 6A 03                           	PUSH	3
   813 00000900 6A 03                           	PUSH	3
   814 00000902 0F B6 45 EE                     	MOVZX	EAX,BYTE [-18+EBP]
   815 00000906 50                              	PUSH	EAX
   816 00000907 FF 75 0C                        	PUSH	DWORD [12+EBP]
   817 0000090A FF 75 08                        	PUSH	DWORD [8+EBP]
   818 0000090D E8 [00000000]                   	CALL	_boxfill8
   819 00000912 83 C4 38                        	ADD	ESP,56
   820 00000915 53                              	PUSH	EBX
   821 00000916 56                              	PUSH	ESI
   822 00000917 53                              	PUSH	EBX
   823 00000918 6A 01                           	PUSH	1
   824 0000091A 6A 0F                           	PUSH	15
   825 0000091C FF 75 0C                        	PUSH	DWORD [12+EBP]
   826 0000091F FF 75 08                        	PUSH	DWORD [8+EBP]
   827 00000922 E8 [00000000]                   	CALL	_boxfill8
   828 00000927 57                              	PUSH	EDI
   829 00000928 FF 75 E8                        	PUSH	DWORD [-24+EBP]
   830 0000092B 57                              	PUSH	EDI
   831 0000092C 31 FF                           	XOR	EDI,EDI
   832 0000092E 6A 00                           	PUSH	0
   833 00000930 6A 00                           	PUSH	0
   834 00000932 FF 75 0C                        	PUSH	DWORD [12+EBP]
   835 00000935 FF 75 08                        	PUSH	DWORD [8+EBP]
   836 00000938 E8 [00000000]                   	CALL	_boxfill8
   837 0000093D 83 C4 38                        	ADD	ESP,56
   838 00000940 FF 75 14                        	PUSH	DWORD [20+EBP]
   839 00000943 0F BE 45 EF                     	MOVSX	EAX,BYTE [-17+EBP]
   840 00000947 50                              	PUSH	EAX
   841 00000948 6A 04                           	PUSH	4
   842 0000094A 6A 18                           	PUSH	24
   843 0000094C FF 75 0C                        	PUSH	DWORD [12+EBP]
   844 0000094F FF 75 08                        	PUSH	DWORD [8+EBP]
   845 00000952 E8 [00000000]                   	CALL	_putfonts8_asc
   846 00000957 83 C4 18                        	ADD	ESP,24
   847 0000095A 6B 5D 0C 05                     	IMUL	EBX,DWORD [12+EBP],5
   848 0000095E C7 45 F0 00000000               	MOV	DWORD [-16+EBP],0
   849 00000965                                 L56:
   850 00000965 8B 45 0C                        	MOV	EAX,DWORD [12+EBP]
   851 00000968 8B 55 08                        	MOV	EDX,DWORD [8+EBP]
   852 0000096B 01 D8                           	ADD	EAX,EBX
   853 0000096D 31 F6                           	XOR	ESI,ESI
   854 0000096F 8D 4C 02 EB                     	LEA	ECX,DWORD [-21+EDX+EAX*1]
   855 00000973                                 L55:
   856 00000973 8A 94 3E [0000009D]             	MOV	DL,BYTE [_closebtn.1+ESI+EDI*1]
   857 0000097A 80 FA 40                        	CMP	DL,64
   858 0000097D 74 33                           	JE	L61
   859 0000097F 80 FA 24                        	CMP	DL,36
   860 00000982 74 2A                           	JE	L62
   861 00000984 80 FA 51                        	CMP	DL,81
   862 00000987 B2 08                           	MOV	DL,8
   863 00000989 0F 95 C0                        	SETNE	AL
   864 0000098C 28 C2                           	SUB	DL,AL
   865 0000098E                                 L50:
   866 0000098E 46                              	INC	ESI
   867 0000098F 88 11                           	MOV	BYTE [ECX],DL
   868 00000991 41                              	INC	ECX
   869 00000992 83 FE 0F                        	CMP	ESI,15
   870 00000995 7E DC                           	JLE	L55
   871 00000997 FF 45 F0                        	INC	DWORD [-16+EBP]
   872 0000099A 83 C7 10                        	ADD	EDI,16
   873 0000099D 03 5D 0C                        	ADD	EBX,DWORD [12+EBP]
   874 000009A0 83 7D F0 0D                     	CMP	DWORD [-16+EBP],13
   875 000009A4 7E BF                           	JLE	L56
   876 000009A6 8D 65 F4                        	LEA	ESP,DWORD [-12+EBP]
   877 000009A9 5B                              	POP	EBX
   878 000009AA 5E                              	POP	ESI
   879 000009AB 5F                              	POP	EDI
   880 000009AC 5D                              	POP	EBP
   881 000009AD C3                              	RET
   882 000009AE                                 L62:
   883 000009AE B2 0F                           	MOV	DL,15
   884 000009B0 EB DC                           	JMP	L50
   885 000009B2                                 L61:
   886 000009B2 31 D2                           	XOR	EDX,EDX
   887 000009B4 EB D8                           	JMP	L50
   888 000009B6                                 L39:
   889 000009B6 C6 45 EF 08                     	MOV	BYTE [-17+EBP],8
   890 000009BA C6 45 EE 0F                     	MOV	BYTE [-18+EBP],15
   891 000009BE E9 FFFFFE7B                     	JMP	L40
   892 000009C3                                 	GLOBAL	_putfonts8_asc_sht
   893 000009C3                                 _putfonts8_asc_sht:
   894 000009C3 55                              	PUSH	EBP
   895 000009C4 89 E5                           	MOV	EBP,ESP
   896 000009C6 57                              	PUSH	EDI
   897 000009C7 56                              	PUSH	ESI
   898 000009C8 53                              	PUSH	EBX
   899 000009C9 83 EC 0C                        	SUB	ESP,12
   900 000009CC 8B 45 08                        	MOV	EAX,DWORD [8+EBP]
   901 000009CF 8B 7D 10                        	MOV	EDI,DWORD [16+EBP]
   902 000009D2 89 45 F0                        	MOV	DWORD [-16+EBP],EAX
   903 000009D5 8B 5D 14                        	MOV	EBX,DWORD [20+EBP]
   904 000009D8 8B 45 0C                        	MOV	EAX,DWORD [12+EBP]
   905 000009DB 89 45 EC                        	MOV	DWORD [-20+EBP],EAX
   906 000009DE 8B 45 1C                        	MOV	EAX,DWORD [28+EBP]
   907 000009E1 89 45 E8                        	MOV	DWORD [-24+EBP],EAX
   908 000009E4 8D 47 0F                        	LEA	EAX,DWORD [15+EDI]
   909 000009E7 50                              	PUSH	EAX
   910 000009E8 8B 45 EC                        	MOV	EAX,DWORD [-20+EBP]
   911 000009EB 8B 75 20                        	MOV	ESI,DWORD [32+EBP]
   912 000009EE 0F BE DB                        	MOVSX	EBX,BL
   913 000009F1 8D 34 F0                        	LEA	ESI,DWORD [EAX+ESI*8]
   914 000009F4 8D 46 FF                        	LEA	EAX,DWORD [-1+ESI]
   915 000009F7 50                              	PUSH	EAX
   916 000009F8 57                              	PUSH	EDI
   917 000009F9 FF 75 EC                        	PUSH	DWORD [-20+EBP]
   918 000009FC 0F B6 45 18                     	MOVZX	EAX,BYTE [24+EBP]
   919 00000A00 50                              	PUSH	EAX
   920 00000A01 8B 45 F0                        	MOV	EAX,DWORD [-16+EBP]
   921 00000A04 FF 70 04                        	PUSH	DWORD [4+EAX]
   922 00000A07 FF 30                           	PUSH	DWORD [EAX]
   923 00000A09 E8 [00000000]                   	CALL	_boxfill8
   924 00000A0E FF 75 E8                        	PUSH	DWORD [-24+EBP]
   925 00000A11 53                              	PUSH	EBX
   926 00000A12 57                              	PUSH	EDI
   927 00000A13 FF 75 EC                        	PUSH	DWORD [-20+EBP]
   928 00000A16 8B 45 F0                        	MOV	EAX,DWORD [-16+EBP]
   929 00000A19 FF 70 04                        	PUSH	DWORD [4+EAX]
   930 00000A1C FF 30                           	PUSH	DWORD [EAX]
   931 00000A1E E8 [00000000]                   	CALL	_putfonts8_asc
   932 00000A23 89 7D 10                        	MOV	DWORD [16+EBP],EDI
   933 00000A26 8D 47 10                        	LEA	EAX,DWORD [16+EDI]
   934 00000A29 89 75 14                        	MOV	DWORD [20+EBP],ESI
   935 00000A2C 89 45 18                        	MOV	DWORD [24+EBP],EAX
   936 00000A2F 83 C4 34                        	ADD	ESP,52
   937 00000A32 8B 45 EC                        	MOV	EAX,DWORD [-20+EBP]
   938 00000A35 89 45 0C                        	MOV	DWORD [12+EBP],EAX
   939 00000A38 8B 45 F0                        	MOV	EAX,DWORD [-16+EBP]
   940 00000A3B 89 45 08                        	MOV	DWORD [8+EBP],EAX
   941 00000A3E 8D 65 F4                        	LEA	ESP,DWORD [-12+EBP]
   942 00000A41 5B                              	POP	EBX
   943 00000A42 5E                              	POP	ESI
   944 00000A43 5F                              	POP	EDI
   945 00000A44 5D                              	POP	EBP
   946 00000A45 E9 [00000000]                   	JMP	_sheet_refresh
   947 00000A4A                                 	GLOBAL	_make_textbox8
   948 00000A4A                                 _make_textbox8:
   949 00000A4A 55                              	PUSH	EBP
   950 00000A4B 89 E5                           	MOV	EBP,ESP
   951 00000A4D 57                              	PUSH	EDI
   952 00000A4E 56                              	PUSH	ESI
   953 00000A4F 53                              	PUSH	EBX
   954 00000A50 83 EC 14                        	SUB	ESP,20
   955 00000A53 8B 45 0C                        	MOV	EAX,DWORD [12+EBP]
   956 00000A56 8B 75 10                        	MOV	ESI,DWORD [16+EBP]
   957 00000A59 03 45 14                        	ADD	EAX,DWORD [20+EBP]
   958 00000A5C 83 EE 03                        	SUB	ESI,3
   959 00000A5F 56                              	PUSH	ESI
   960 00000A60 89 45 F0                        	MOV	DWORD [-16+EBP],EAX
   961 00000A63 8B 45 10                        	MOV	EAX,DWORD [16+EBP]
   962 00000A66 03 45 18                        	ADD	EAX,DWORD [24+EBP]
   963 00000A69 89 45 EC                        	MOV	DWORD [-20+EBP],EAX
   964 00000A6C 8B 45 F0                        	MOV	EAX,DWORD [-16+EBP]
   965 00000A6F 40                              	INC	EAX
   966 00000A70 50                              	PUSH	EAX
   967 00000A71 89 45 E8                        	MOV	DWORD [-24+EBP],EAX
   968 00000A74 8B 45 0C                        	MOV	EAX,DWORD [12+EBP]
   969 00000A77 56                              	PUSH	ESI
   970 00000A78 83 E8 02                        	SUB	EAX,2
   971 00000A7B 50                              	PUSH	EAX
   972 00000A7C 89 45 E4                        	MOV	DWORD [-28+EBP],EAX
   973 00000A7F 8B 45 08                        	MOV	EAX,DWORD [8+EBP]
   974 00000A82 6A 0F                           	PUSH	15
   975 00000A84 FF 70 04                        	PUSH	DWORD [4+EAX]
   976 00000A87 FF 30                           	PUSH	DWORD [EAX]
   977 00000A89 E8 [00000000]                   	CALL	_boxfill8
   978 00000A8E 8B 7D 0C                        	MOV	EDI,DWORD [12+EBP]
   979 00000A91 8B 45 EC                        	MOV	EAX,DWORD [-20+EBP]
   980 00000A94 83 EF 03                        	SUB	EDI,3
   981 00000A97 40                              	INC	EAX
   982 00000A98 50                              	PUSH	EAX
   983 00000A99 89 45 E0                        	MOV	DWORD [-32+EBP],EAX
   984 00000A9C 57                              	PUSH	EDI
   985 00000A9D 8B 45 08                        	MOV	EAX,DWORD [8+EBP]
   986 00000AA0 56                              	PUSH	ESI
   987 00000AA1 57                              	PUSH	EDI
   988 00000AA2 6A 0F                           	PUSH	15
   989 00000AA4 FF 70 04                        	PUSH	DWORD [4+EAX]
   990 00000AA7 FF 30                           	PUSH	DWORD [EAX]
   991 00000AA9 E8 [00000000]                   	CALL	_boxfill8
   992 00000AAE 8B 45 08                        	MOV	EAX,DWORD [8+EBP]
   993 00000AB1 83 C4 38                        	ADD	ESP,56
   994 00000AB4 8B 5D EC                        	MOV	EBX,DWORD [-20+EBP]
   995 00000AB7 83 C3 02                        	ADD	EBX,2
   996 00000ABA 53                              	PUSH	EBX
   997 00000ABB FF 75 E8                        	PUSH	DWORD [-24+EBP]
   998 00000ABE 53                              	PUSH	EBX
   999 00000ABF 57                              	PUSH	EDI
  1000 00000AC0 6A 07                           	PUSH	7
  1001 00000AC2 FF 70 04                        	PUSH	DWORD [4+EAX]
  1002 00000AC5 FF 30                           	PUSH	DWORD [EAX]
  1003 00000AC7 E8 [00000000]                   	CALL	_boxfill8
  1004 00000ACC 8B 45 F0                        	MOV	EAX,DWORD [-16+EBP]
  1005 00000ACF 53                              	PUSH	EBX
  1006 00000AD0 83 C0 02                        	ADD	EAX,2
  1007 00000AD3 50                              	PUSH	EAX
  1008 00000AD4 56                              	PUSH	ESI
  1009 00000AD5 50                              	PUSH	EAX
  1010 00000AD6 8B 45 08                        	MOV	EAX,DWORD [8+EBP]
  1011 00000AD9 6A 07                           	PUSH	7
  1012 00000ADB FF 70 04                        	PUSH	DWORD [4+EAX]
  1013 00000ADE FF 30                           	PUSH	DWORD [EAX]
  1014 00000AE0 E8 [00000000]                   	CALL	_boxfill8
  1015 00000AE5 8B 45 08                        	MOV	EAX,DWORD [8+EBP]
  1016 00000AE8 83 C4 38                        	ADD	ESP,56
  1017 00000AEB 8B 5D 10                        	MOV	EBX,DWORD [16+EBP]
  1018 00000AEE 83 EB 02                        	SUB	EBX,2
  1019 00000AF1 8B 7D 0C                        	MOV	EDI,DWORD [12+EBP]
  1020 00000AF4 53                              	PUSH	EBX
  1021 00000AF5 4F                              	DEC	EDI
  1022 00000AF6 FF 75 F0                        	PUSH	DWORD [-16+EBP]
  1023 00000AF9 53                              	PUSH	EBX
  1024 00000AFA 57                              	PUSH	EDI
  1025 00000AFB 6A 00                           	PUSH	0
  1026 00000AFD FF 70 04                        	PUSH	DWORD [4+EAX]
  1027 00000B00 FF 30                           	PUSH	DWORD [EAX]
  1028 00000B02 E8 [00000000]                   	CALL	_boxfill8
  1029 00000B07 8B 45 08                        	MOV	EAX,DWORD [8+EBP]
  1030 00000B0A FF 75 EC                        	PUSH	DWORD [-20+EBP]
  1031 00000B0D FF 75 E4                        	PUSH	DWORD [-28+EBP]
  1032 00000B10 53                              	PUSH	EBX
  1033 00000B11 FF 75 E4                        	PUSH	DWORD [-28+EBP]
  1034 00000B14 6A 00                           	PUSH	0
  1035 00000B16 FF 70 04                        	PUSH	DWORD [4+EAX]
  1036 00000B19 FF 30                           	PUSH	DWORD [EAX]
  1037 00000B1B E8 [00000000]                   	CALL	_boxfill8
  1038 00000B20 8B 45 08                        	MOV	EAX,DWORD [8+EBP]
  1039 00000B23 83 C4 38                        	ADD	ESP,56
  1040 00000B26 FF 75 E0                        	PUSH	DWORD [-32+EBP]
  1041 00000B29 FF 75 F0                        	PUSH	DWORD [-16+EBP]
  1042 00000B2C FF 75 E0                        	PUSH	DWORD [-32+EBP]
  1043 00000B2F FF 75 E4                        	PUSH	DWORD [-28+EBP]
  1044 00000B32 6A 08                           	PUSH	8
  1045 00000B34 FF 70 04                        	PUSH	DWORD [4+EAX]
  1046 00000B37 FF 30                           	PUSH	DWORD [EAX]
  1047 00000B39 E8 [00000000]                   	CALL	_boxfill8
  1048 00000B3E 8B 45 08                        	MOV	EAX,DWORD [8+EBP]
  1049 00000B41 FF 75 E0                        	PUSH	DWORD [-32+EBP]
  1050 00000B44 FF 75 E8                        	PUSH	DWORD [-24+EBP]
  1051 00000B47 53                              	PUSH	EBX
  1052 00000B48 FF 75 E8                        	PUSH	DWORD [-24+EBP]
  1053 00000B4B 6A 08                           	PUSH	8
  1054 00000B4D FF 70 04                        	PUSH	DWORD [4+EAX]
  1055 00000B50 FF 30                           	PUSH	DWORD [EAX]
  1056 00000B52 E8 [00000000]                   	CALL	_boxfill8
  1057 00000B57 8B 45 10                        	MOV	EAX,DWORD [16+EBP]
  1058 00000B5A 83 C4 38                        	ADD	ESP,56
  1059 00000B5D 48                              	DEC	EAX
  1060 00000B5E FF 75 EC                        	PUSH	DWORD [-20+EBP]
  1061 00000B61 FF 75 F0                        	PUSH	DWORD [-16+EBP]
  1062 00000B64 50                              	PUSH	EAX
  1063 00000B65 57                              	PUSH	EDI
  1064 00000B66 0F B6 45 1C                     	MOVZX	EAX,BYTE [28+EBP]
  1065 00000B6A 50                              	PUSH	EAX
  1066 00000B6B 8B 45 08                        	MOV	EAX,DWORD [8+EBP]
  1067 00000B6E FF 70 04                        	PUSH	DWORD [4+EAX]
  1068 00000B71 FF 30                           	PUSH	DWORD [EAX]
  1069 00000B73 E8 [00000000]                   	CALL	_boxfill8
  1070 00000B78 8D 65 F4                        	LEA	ESP,DWORD [-12+EBP]
  1071 00000B7B 5B                              	POP	EBX
  1072 00000B7C 5E                              	POP	ESI
  1073 00000B7D 5F                              	POP	EDI
  1074 00000B7E 5D                              	POP	EBP
  1075 00000B7F C3                              	RET
  1076                                          [SECTION .data]
  1077 0000017D                                 LC7:
  1078 0000017D 25 31 32 64 00                  	DB	"%12d",0x00
  1079                                          [SECTION .text]
  1080 00000B80                                 	GLOBAL	_task_b_main
  1081 00000B80                                 _task_b_main:
  1082 00000B80 55                              	PUSH	EBP
  1083 00000B81 89 E5                           	MOV	EBP,ESP
  1084 00000B83 57                              	PUSH	EDI
  1085 00000B84 56                              	PUSH	ESI
  1086 00000B85 31 FF                           	XOR	EDI,EDI
  1087 00000B87 53                              	PUSH	EBX
  1088 00000B88 8D 85 FFFFFDD4                  	LEA	EAX,DWORD [-556+EBP]
  1089 00000B8E 81 EC 00000234                  	SUB	ESP,564
  1090 00000B94 8D 5D D4                        	LEA	EBX,DWORD [-44+EBP]
  1091 00000B97 C7 85 FFFFFDC0 00000000         	MOV	DWORD [-576+EBP],0
  1092 00000BA1 6A 00                           	PUSH	0
  1093 00000BA3 50                              	PUSH	EAX
  1094 00000BA4 68 00000080                     	PUSH	128
  1095 00000BA9 53                              	PUSH	EBX
  1096 00000BAA E8 [00000000]                   	CALL	_fifo32_init
  1097 00000BAF E8 [00000000]                   	CALL	_timer_alloc
  1098 00000BB4 6A 64                           	PUSH	100
  1099 00000BB6 53                              	PUSH	EBX
  1100 00000BB7 89 C6                           	MOV	ESI,EAX
  1101 00000BB9 50                              	PUSH	EAX
  1102 00000BBA E8 [00000000]                   	CALL	_timer_init
  1103 00000BBF 6A 64                           	PUSH	100
  1104 00000BC1 56                              	PUSH	ESI
  1105 00000BC2 E8 [00000000]                   	CALL	_timer_settime
  1106 00000BC7 83 C4 24                        	ADD	ESP,36
  1107 00000BCA                                 L66:
  1108 00000BCA 8D 5D D4                        	LEA	EBX,DWORD [-44+EBP]
  1109 00000BCD E8 [00000000]                   	CALL	_io_cli
  1110 00000BD2 53                              	PUSH	EBX
  1111 00000BD3 47                              	INC	EDI
  1112 00000BD4 E8 [00000000]                   	CALL	_fifo32_status
  1113 00000BD9 5A                              	POP	EDX
  1114 00000BDA 85 C0                           	TEST	EAX,EAX
  1115 00000BDC 74 55                           	JE	L72
  1116 00000BDE 53                              	PUSH	EBX
  1117 00000BDF E8 [00000000]                   	CALL	_fifo32_get
  1118 00000BE4 89 C3                           	MOV	EBX,EAX
  1119 00000BE6 E8 [00000000]                   	CALL	_io_sti
  1120 00000BEB 59                              	POP	ECX
  1121 00000BEC 83 FB 64                        	CMP	EBX,100
  1122 00000BEF 75 D9                           	JNE	L66
  1123 00000BF1 89 F8                           	MOV	EAX,EDI
  1124 00000BF3 8D 9D FFFFFDC4                  	LEA	EBX,DWORD [-572+EBP]
  1125 00000BF9 2B 85 FFFFFDC0                  	SUB	EAX,DWORD [-576+EBP]
  1126 00000BFF 50                              	PUSH	EAX
  1127 00000C00 68 [0000017D]                   	PUSH	LC7
  1128 00000C05 53                              	PUSH	EBX
  1129 00000C06 E8 [00000000]                   	CALL	_sprintf
  1130 00000C0B 6A 0C                           	PUSH	12
  1131 00000C0D 53                              	PUSH	EBX
  1132 00000C0E 6A 08                           	PUSH	8
  1133 00000C10 6A 00                           	PUSH	0
  1134 00000C12 6A 1C                           	PUSH	28
  1135 00000C14 6A 18                           	PUSH	24
  1136 00000C16 FF 75 08                        	PUSH	DWORD [8+EBP]
  1137 00000C19 E8 FFFFFDA5                     	CALL	_putfonts8_asc_sht
  1138 00000C1E 83 C4 28                        	ADD	ESP,40
  1139 00000C21 89 BD FFFFFDC0                  	MOV	DWORD [-576+EBP],EDI
  1140 00000C27 6A 64                           	PUSH	100
  1141 00000C29 56                              	PUSH	ESI
  1142 00000C2A E8 [00000000]                   	CALL	_timer_settime
  1143 00000C2F 58                              	POP	EAX
  1144 00000C30 5A                              	POP	EDX
  1145 00000C31 EB 97                           	JMP	L66
  1146 00000C33                                 L72:
  1147 00000C33 E8 [00000000]                   	CALL	_io_sti
  1148 00000C38 EB 90                           	JMP	L66
  1149 00000C3A                                 	GLOBAL	_console_task
  1150 00000C3A                                 _console_task:
  1151 00000C3A 55                              	PUSH	EBP
  1152 00000C3B 89 E5                           	MOV	EBP,ESP
  1153 00000C3D 57                              	PUSH	EDI
  1154 00000C3E 56                              	PUSH	ESI
  1155 00000C3F 53                              	PUSH	EBX
  1156 00000C40 8D 5D D4                        	LEA	EBX,DWORD [-44+EBP]
  1157 00000C43 81 EC 00000224                  	SUB	ESP,548
  1158 00000C49 E8 [00000000]                   	CALL	_task_now
  1159 00000C4E 50                              	PUSH	EAX
  1160 00000C4F 89 85 FFFFFDD0                  	MOV	DWORD [-560+EBP],EAX
  1161 00000C55 8D 85 FFFFFDD4                  	LEA	EAX,DWORD [-556+EBP]
  1162 00000C5B 50                              	PUSH	EAX
  1163 00000C5C 68 00000080                     	PUSH	128
  1164 00000C61 53                              	PUSH	EBX
  1165 00000C62 E8 [00000000]                   	CALL	_fifo32_init
  1166 00000C67 E8 [00000000]                   	CALL	_timer_alloc
  1167 00000C6C 6A 01                           	PUSH	1
  1168 00000C6E 53                              	PUSH	EBX
  1169 00000C6F 89 C7                           	MOV	EDI,EAX
  1170 00000C71 50                              	PUSH	EAX
  1171 00000C72 E8 [00000000]                   	CALL	_timer_init
  1172 00000C77 6A 32                           	PUSH	50
  1173 00000C79 57                              	PUSH	EDI
  1174 00000C7A E8 [00000000]                   	CALL	_timer_settime
  1175 00000C7F 83 C4 24                        	ADD	ESP,36
  1176 00000C82                                 L74:
  1177 00000C82 8D 75 D4                        	LEA	ESI,DWORD [-44+EBP]
  1178 00000C85 E8 [00000000]                   	CALL	_io_cli
  1179 00000C8A 56                              	PUSH	ESI
  1180 00000C8B E8 [00000000]                   	CALL	_fifo32_status
  1181 00000C90 5A                              	POP	EDX
  1182 00000C91 85 C0                           	TEST	EAX,EAX
  1183 00000C93 74 6B                           	JE	L83
  1184 00000C95 56                              	PUSH	ESI
  1185 00000C96 E8 [00000000]                   	CALL	_fifo32_get
  1186 00000C9B 89 C3                           	MOV	EBX,EAX
  1187 00000C9D E8 [00000000]                   	CALL	_io_sti
  1188 00000CA2 59                              	POP	ECX
  1189 00000CA3 83 FB 01                        	CMP	EBX,1
  1190 00000CA6 7F DA                           	JG	L74
  1191 00000CA8 85 DB                           	TEST	EBX,EBX
  1192 00000CAA 74 47                           	JE	L80
  1193 00000CAC 6A 00                           	PUSH	0
  1194 00000CAE BB 00000007                     	MOV	EBX,7
  1195 00000CB3 56                              	PUSH	ESI
  1196 00000CB4 57                              	PUSH	EDI
  1197 00000CB5 E8 [00000000]                   	CALL	_timer_init
  1198 00000CBA                                 L82:
  1199 00000CBA 83 C4 0C                        	ADD	ESP,12
  1200 00000CBD 6A 32                           	PUSH	50
  1201 00000CBF 57                              	PUSH	EDI
  1202 00000CC0 E8 [00000000]                   	CALL	_timer_settime
  1203 00000CC5 8B 45 08                        	MOV	EAX,DWORD [8+EBP]
  1204 00000CC8 6A 2B                           	PUSH	43
  1205 00000CCA 6A 0F                           	PUSH	15
  1206 00000CCC 6A 1C                           	PUSH	28
  1207 00000CCE 6A 08                           	PUSH	8
  1208 00000CD0 53                              	PUSH	EBX
  1209 00000CD1 FF 70 04                        	PUSH	DWORD [4+EAX]
  1210 00000CD4 FF 30                           	PUSH	DWORD [EAX]
  1211 00000CD6 E8 [00000000]                   	CALL	_boxfill8
  1212 00000CDB 83 C4 24                        	ADD	ESP,36
  1213 00000CDE 6A 2C                           	PUSH	44
  1214 00000CE0 6A 10                           	PUSH	16
  1215 00000CE2 6A 1C                           	PUSH	28
  1216 00000CE4 6A 08                           	PUSH	8
  1217 00000CE6 FF 75 08                        	PUSH	DWORD [8+EBP]
  1218 00000CE9 E8 [00000000]                   	CALL	_sheet_refresh
  1219 00000CEE 83 C4 14                        	ADD	ESP,20
  1220 00000CF1 EB 8F                           	JMP	L74
  1221 00000CF3                                 L80:
  1222 00000CF3 6A 01                           	PUSH	1
  1223 00000CF5 31 DB                           	XOR	EBX,EBX
  1224 00000CF7 56                              	PUSH	ESI
  1225 00000CF8 57                              	PUSH	EDI
  1226 00000CF9 E8 [00000000]                   	CALL	_timer_init
  1227 00000CFE EB BA                           	JMP	L82
  1228 00000D00                                 L83:
  1229 00000D00 FF B5 FFFFFDD0                  	PUSH	DWORD [-560+EBP]
  1230 00000D06 E8 [00000000]                   	CALL	_task_sleep
  1231 00000D0B E8 [00000000]                   	CALL	_io_sti
  1232 00000D10 5B                              	POP	EBX
  1233 00000D11 E9 FFFFFF6C                     	JMP	L74
